
rv64ui-p-xori:     file format elf64-littleriscv


Disassembly of section .text:

0000000000002000 <_start>:
    2000:	50b02973          	csrr	a0,hartid
    2004:	00091063          	bnez	a0,2004 <_start+0x4>

0000000000002008 <test_2>:
    2008:	00ff10b7          	lui	ra,0xff1
    200c:	f000809b          	addiw	ra,ra,-256
    2010:	f0f0c193          	xori	s1,ra,-241
    2014:	ff00feb7          	lui	t3,0xff00f
    2018:	00fe8e9b          	addiw	t3,t3,15
    201c:	00200e13          	li	t2,2
    2020:	1dd19663          	bne	s1,t3,21ec <fail>

0000000000002024 <test_3>:
    2024:	0ff010b7          	lui	ra,0xff01
    2028:	ff00809b          	addiw	ra,ra,-16
    202c:	0f00c193          	xori	s1,ra,240
    2030:	0ff01eb7          	lui	t3,0xff01
    2034:	f00e8e9b          	addiw	t3,t3,-256
    2038:	00300e13          	li	t2,3
    203c:	1bd19863          	bne	s1,t3,21ec <fail>

0000000000002040 <test_4>:
    2040:	00ff10b7          	lui	ra,0xff1
    2044:	8ff0809b          	addiw	ra,ra,-1793
    2048:	70f0c193          	xori	s1,ra,1807
    204c:	00ff1eb7          	lui	t3,0xff1
    2050:	ff0e8e9b          	addiw	t3,t3,-16
    2054:	00400e13          	li	t2,4
    2058:	19d19a63          	bne	s1,t3,21ec <fail>

000000000000205c <test_5>:
    205c:	f00ff0b7          	lui	ra,0xf00ff
    2060:	00f0809b          	addiw	ra,ra,15
    2064:	0f00c193          	xori	s1,ra,240
    2068:	f00ffeb7          	lui	t3,0xf00ff
    206c:	0ffe8e9b          	addiw	t3,t3,255
    2070:	00500e13          	li	t2,5
    2074:	17d19c63          	bne	s1,t3,21ec <fail>

0000000000002078 <test_6>:
    2078:	ff00f0b7          	lui	ra,0xff00f
    207c:	7000809b          	addiw	ra,ra,1792
    2080:	70f0c093          	xori	ra,ra,1807
    2084:	ff00feb7          	lui	t3,0xff00f
    2088:	00fe8e9b          	addiw	t3,t3,15
    208c:	00600e13          	li	t2,6
    2090:	15d09e63          	bne	ra,t3,21ec <fail>

0000000000002094 <test_7>:
    2094:	00000213          	li	s2,0
    2098:	0ff010b7          	lui	ra,0xff01
    209c:	ff00809b          	addiw	ra,ra,-16
    20a0:	0f00c193          	xori	s1,ra,240
    20a4:	00018313          	mv	s4,s1
    20a8:	00120213          	addi	s2,s2,1
    20ac:	00200293          	li	s3,2
    20b0:	fe5214e3          	bne	s2,s3,2098 <test_7+0x4>
    20b4:	0ff01eb7          	lui	t3,0xff01
    20b8:	f00e8e9b          	addiw	t3,t3,-256
    20bc:	00700e13          	li	t2,7
    20c0:	13d31663          	bne	s4,t3,21ec <fail>

00000000000020c4 <test_8>:
    20c4:	00000213          	li	s2,0
    20c8:	00ff10b7          	lui	ra,0xff1
    20cc:	8ff0809b          	addiw	ra,ra,-1793
    20d0:	70f0c193          	xori	s1,ra,1807
    20d4:	00000013          	nop
    20d8:	00018313          	mv	s4,s1
    20dc:	00120213          	addi	s2,s2,1
    20e0:	00200293          	li	s3,2
    20e4:	fe5212e3          	bne	s2,s3,20c8 <test_8+0x4>
    20e8:	00ff1eb7          	lui	t3,0xff1
    20ec:	ff0e8e9b          	addiw	t3,t3,-16
    20f0:	00800e13          	li	t2,8
    20f4:	0fd31c63          	bne	s4,t3,21ec <fail>

00000000000020f8 <test_9>:
    20f8:	00000213          	li	s2,0
    20fc:	f00ff0b7          	lui	ra,0xf00ff
    2100:	00f0809b          	addiw	ra,ra,15
    2104:	0f00c193          	xori	s1,ra,240
    2108:	00000013          	nop
    210c:	00000013          	nop
    2110:	00018313          	mv	s4,s1
    2114:	00120213          	addi	s2,s2,1
    2118:	00200293          	li	s3,2
    211c:	fe5210e3          	bne	s2,s3,20fc <test_9+0x4>
    2120:	f00ffeb7          	lui	t3,0xf00ff
    2124:	0ffe8e9b          	addiw	t3,t3,255
    2128:	00900e13          	li	t2,9
    212c:	0dd31063          	bne	s4,t3,21ec <fail>

0000000000002130 <test_10>:
    2130:	00000213          	li	s2,0
    2134:	0ff010b7          	lui	ra,0xff01
    2138:	ff00809b          	addiw	ra,ra,-16
    213c:	0f00c193          	xori	s1,ra,240
    2140:	00120213          	addi	s2,s2,1
    2144:	00200293          	li	s3,2
    2148:	fe5216e3          	bne	s2,s3,2134 <test_10+0x4>
    214c:	0ff01eb7          	lui	t3,0xff01
    2150:	f00e8e9b          	addiw	t3,t3,-256
    2154:	00a00e13          	li	t2,10
    2158:	09d19a63          	bne	s1,t3,21ec <fail>

000000000000215c <test_11>:
    215c:	00000213          	li	s2,0
    2160:	00ff10b7          	lui	ra,0xff1
    2164:	fff0809b          	addiw	ra,ra,-1
    2168:	00000013          	nop
    216c:	00f0c193          	xori	s1,ra,15
    2170:	00120213          	addi	s2,s2,1
    2174:	00200293          	li	s3,2
    2178:	fe5214e3          	bne	s2,s3,2160 <test_11+0x4>
    217c:	00ff1eb7          	lui	t3,0xff1
    2180:	ff0e8e9b          	addiw	t3,t3,-16
    2184:	00b00e13          	li	t2,11
    2188:	07d19263          	bne	s1,t3,21ec <fail>

000000000000218c <test_12>:
    218c:	00000213          	li	s2,0
    2190:	f00ff0b7          	lui	ra,0xf00ff
    2194:	00f0809b          	addiw	ra,ra,15
    2198:	00000013          	nop
    219c:	00000013          	nop
    21a0:	0f00c193          	xori	s1,ra,240
    21a4:	00120213          	addi	s2,s2,1
    21a8:	00200293          	li	s3,2
    21ac:	fe5212e3          	bne	s2,s3,2190 <test_12+0x4>
    21b0:	f00ffeb7          	lui	t3,0xf00ff
    21b4:	0ffe8e9b          	addiw	t3,t3,255
    21b8:	00c00e13          	li	t2,12
    21bc:	03d19863          	bne	s1,t3,21ec <fail>

00000000000021c0 <test_13>:
    21c0:	0f004093          	xori	ra,zero,240
    21c4:	0f000e93          	li	t3,240
    21c8:	00d00e13          	li	t2,13
    21cc:	03d09063          	bne	ra,t3,21ec <fail>

00000000000021d0 <test_14>:
    21d0:	00ff00b7          	lui	ra,0xff0
    21d4:	0ff0809b          	addiw	ra,ra,255
    21d8:	70f0c013          	xori	zero,ra,1807
    21dc:	00000e93          	li	t3,0
    21e0:	00e00e13          	li	t2,14
    21e4:	01d01463          	bne	zero,t3,21ec <fail>
    21e8:	01c01e63          	bne	zero,t2,2204 <pass>

00000000000021ec <fail>:
    21ec:	0ff0000f          	fence
    21f0:	000e0863          	beqz	t2,2200 <fail+0x14>
    21f4:	001e1e13          	slli	t2,t2,0x1
    21f8:	001e6e13          	ori	t2,t2,1
    21fc:	51ee1073          	csrw	tohost,t2
    2200:	00000063          	b	2200 <fail+0x14>

0000000000002204 <pass>:
    2204:	0ff0000f          	fence
    2208:	51e0d073          	csrwi	tohost,1
    220c:	00000063          	b	220c <pass+0x8>
