
rv64ui-p-vec-add:     file format elf64-littleriscv


Disassembly of section .text:

0000000000002000 <_start>:
    2000:	50b02973          	csrr	a0,hartid
    2004:	00091063          	bnez	a0,2004 <_start+0x4>
    2008:	10000913          	li	a0,256
    200c:	50a92073          	csrs	status,a0
    2010:	50a029f3          	csrr	a1,status
    2014:	01397933          	and	a0,a0,a1
    2018:	00091863          	bnez	a0,2028 <test_2>
    201c:	0ff0000f          	fence
    2020:	51e0d073          	csrwi	tohost,1
    2024:	00000063          	b	2024 <_start+0x24>

0000000000002028 <test_2>:
    2028:	0040200b          	vsetcfg	4,0
    202c:	00001ab7          	lui	a3,0x1
    2030:	800a8a9b          	addiw	a3,a3,-2048
    2034:	000aea8b          	vsetvl	a3,a3
    2038:	00002937          	lui	a0,0x2
    203c:	06192c2b          	vf	120(a0) # 2078 <vtcode2>
    2040:	00001b17          	auipc	a4,0x1
    2044:	e80b0b13          	addi	a4,a4,-384 # 2ec0 <begin_signature>
    2048:	060b21fb          	vsd	vx3,a4
    204c:	0ff0000f          	fence
    2050:	00000993          	li	a1,0
    2054:	00000a13          	li	a2,0
    2058:	00200e13          	li	t2,2

000000000000205c <test_loop2>:
    205c:	000b3903          	ld	a0,0(a4)
    2060:	01390463          	beq	a0,a1,2068 <skip2>
    2064:	6310006f          	j	2e94 <fail>

0000000000002068 <skip2>:
    2068:	008b0b13          	addi	a4,a4,8
    206c:	001a0a13          	addi	a2,a2,1
    2070:	ff5a16e3          	bne	a2,a3,205c <test_loop2>
    2074:	0140006f          	j	2088 <next2>

0000000000002078 <vtcode2>:
    2078:	00000093          	li	ra,0
    207c:	00000113          	li	s0,0
    2080:	002081b3          	add	s1,ra,s0
    2084:	00005077          	stop

0000000000002088 <next2>:
    2088:	0040200b          	vsetcfg	4,0
    208c:	00001ab7          	lui	a3,0x1
    2090:	800a8a9b          	addiw	a3,a3,-2048
    2094:	000aea8b          	vsetvl	a3,a3
    2098:	00002937          	lui	a0,0x2
    209c:	0c192c2b          	vf	216(a0) # 20d8 <vtcode3>
    20a0:	00001b17          	auipc	a4,0x1
    20a4:	e20b0b13          	addi	a4,a4,-480 # 2ec0 <begin_signature>
    20a8:	060b21fb          	vsd	vx3,a4
    20ac:	0ff0000f          	fence
    20b0:	00200993          	li	a1,2
    20b4:	00000a13          	li	a2,0
    20b8:	00300e13          	li	t2,3

00000000000020bc <test_loop3>:
    20bc:	000b3903          	ld	a0,0(a4)
    20c0:	01390463          	beq	a0,a1,20c8 <skip3>
    20c4:	5d10006f          	j	2e94 <fail>

00000000000020c8 <skip3>:
    20c8:	008b0b13          	addi	a4,a4,8
    20cc:	001a0a13          	addi	a2,a2,1
    20d0:	ff5a16e3          	bne	a2,a3,20bc <test_loop3>
    20d4:	0140006f          	j	20e8 <next3>

00000000000020d8 <vtcode3>:
    20d8:	00100093          	li	ra,1
    20dc:	00100113          	li	s0,1
    20e0:	002081b3          	add	s1,ra,s0
    20e4:	00005077          	stop

00000000000020e8 <next3>:
    20e8:	0040200b          	vsetcfg	4,0
    20ec:	00001ab7          	lui	a3,0x1
    20f0:	800a8a9b          	addiw	a3,a3,-2048
    20f4:	000aea8b          	vsetvl	a3,a3
    20f8:	00002937          	lui	a0,0x2
    20fc:	12192c2b          	vf	312(a0) # 2138 <vtcode4>
    2100:	00001b17          	auipc	a4,0x1
    2104:	dc0b0b13          	addi	a4,a4,-576 # 2ec0 <begin_signature>
    2108:	060b21fb          	vsd	vx3,a4
    210c:	0ff0000f          	fence
    2110:	00a00993          	li	a1,10
    2114:	00000a13          	li	a2,0
    2118:	00400e13          	li	t2,4

000000000000211c <test_loop4>:
    211c:	000b3903          	ld	a0,0(a4)
    2120:	01390463          	beq	a0,a1,2128 <skip4>
    2124:	5710006f          	j	2e94 <fail>

0000000000002128 <skip4>:
    2128:	008b0b13          	addi	a4,a4,8
    212c:	001a0a13          	addi	a2,a2,1
    2130:	ff5a16e3          	bne	a2,a3,211c <test_loop4>
    2134:	0140006f          	j	2148 <next4>

0000000000002138 <vtcode4>:
    2138:	00300093          	li	ra,3
    213c:	00700113          	li	s0,7
    2140:	002081b3          	add	s1,ra,s0
    2144:	00005077          	stop

0000000000002148 <next4>:
    2148:	0040200b          	vsetcfg	4,0
    214c:	00001ab7          	lui	a3,0x1
    2150:	800a8a9b          	addiw	a3,a3,-2048
    2154:	000aea8b          	vsetvl	a3,a3
    2158:	00002937          	lui	a0,0x2
    215c:	18192c2b          	vf	408(a0) # 2198 <vtcode5>
    2160:	00001b17          	auipc	a4,0x1
    2164:	d60b0b13          	addi	a4,a4,-672 # 2ec0 <begin_signature>
    2168:	060b21fb          	vsd	vx3,a4
    216c:	0ff0000f          	fence
    2170:	ffff89b7          	lui	a1,0xffff8
    2174:	00000a13          	li	a2,0
    2178:	00500e13          	li	t2,5

000000000000217c <test_loop5>:
    217c:	000b3903          	ld	a0,0(a4)
    2180:	01390463          	beq	a0,a1,2188 <skip5>
    2184:	5110006f          	j	2e94 <fail>

0000000000002188 <skip5>:
    2188:	008b0b13          	addi	a4,a4,8
    218c:	001a0a13          	addi	a2,a2,1
    2190:	ff5a16e3          	bne	a2,a3,217c <test_loop5>
    2194:	0140006f          	j	21a8 <next5>

0000000000002198 <vtcode5>:
    2198:	00000093          	li	ra,0
    219c:	ffff8137          	lui	s0,0xffff8
    21a0:	002081b3          	add	s1,ra,s0
    21a4:	00005077          	stop

00000000000021a8 <next5>:
    21a8:	0040200b          	vsetcfg	4,0
    21ac:	00001ab7          	lui	a3,0x1
    21b0:	800a8a9b          	addiw	a3,a3,-2048
    21b4:	000aea8b          	vsetvl	a3,a3
    21b8:	00002937          	lui	a0,0x2
    21bc:	1e192c2b          	vf	504(a0) # 21f8 <vtcode6>
    21c0:	00001b17          	auipc	a4,0x1
    21c4:	d00b0b13          	addi	a4,a4,-768 # 2ec0 <begin_signature>
    21c8:	060b21fb          	vsd	vx3,a4
    21cc:	0ff0000f          	fence
    21d0:	800009b7          	lui	a1,0x80000
    21d4:	00000a13          	li	a2,0
    21d8:	00600e13          	li	t2,6

00000000000021dc <test_loop6>:
    21dc:	000b3903          	ld	a0,0(a4)
    21e0:	01390463          	beq	a0,a1,21e8 <skip6>
    21e4:	4b10006f          	j	2e94 <fail>

00000000000021e8 <skip6>:
    21e8:	008b0b13          	addi	a4,a4,8
    21ec:	001a0a13          	addi	a2,a2,1
    21f0:	ff5a16e3          	bne	a2,a3,21dc <test_loop6>
    21f4:	0140006f          	j	2208 <next6>

00000000000021f8 <vtcode6>:
    21f8:	800000b7          	lui	ra,0x80000
    21fc:	00000113          	li	s0,0
    2200:	002081b3          	add	s1,ra,s0
    2204:	00005077          	stop

0000000000002208 <next6>:
    2208:	0040200b          	vsetcfg	4,0
    220c:	00001ab7          	lui	a3,0x1
    2210:	800a8a9b          	addiw	a3,a3,-2048
    2214:	000aea8b          	vsetvl	a3,a3
    2218:	00002937          	lui	a0,0x2
    221c:	2619202b          	vf	608(a0) # 2260 <vtcode7>
    2220:	00001b17          	auipc	a4,0x1
    2224:	ca0b0b13          	addi	a4,a4,-864 # 2ec0 <begin_signature>
    2228:	060b21fb          	vsd	vx3,a4
    222c:	0ff0000f          	fence
    2230:	fff009b7          	lui	a1,0xfff00
    2234:	ff09899b          	addiw	a1,a1,-16
    2238:	00b99993          	slli	a1,a1,0xb
    223c:	00000a13          	li	a2,0
    2240:	00700e13          	li	t2,7

0000000000002244 <test_loop7>:
    2244:	000b3903          	ld	a0,0(a4)
    2248:	01390463          	beq	a0,a1,2250 <skip7>
    224c:	4490006f          	j	2e94 <fail>

0000000000002250 <skip7>:
    2250:	008b0b13          	addi	a4,a4,8
    2254:	001a0a13          	addi	a2,a2,1
    2258:	ff5a16e3          	bne	a2,a3,2244 <test_loop7>
    225c:	0140006f          	j	2270 <next7>

0000000000002260 <vtcode7>:
    2260:	800000b7          	lui	ra,0x80000
    2264:	ffff8137          	lui	s0,0xffff8
    2268:	002081b3          	add	s1,ra,s0
    226c:	00005077          	stop

0000000000002270 <next7>:
    2270:	0040200b          	vsetcfg	4,0
    2274:	00001ab7          	lui	a3,0x1
    2278:	800a8a9b          	addiw	a3,a3,-2048
    227c:	000aea8b          	vsetvl	a3,a3
    2280:	00002937          	lui	a0,0x2
    2284:	2c19222b          	vf	708(a0) # 22c4 <vtcode8>
    2288:	00001b17          	auipc	a4,0x1
    228c:	c38b0b13          	addi	a4,a4,-968 # 2ec0 <begin_signature>
    2290:	060b21fb          	vsd	vx3,a4
    2294:	0ff0000f          	fence
    2298:	000089b7          	lui	a1,0x8
    229c:	fff9899b          	addiw	a1,a1,-1
    22a0:	00000a13          	li	a2,0
    22a4:	00800e13          	li	t2,8

00000000000022a8 <test_loop8>:
    22a8:	000b3903          	ld	a0,0(a4)
    22ac:	01390463          	beq	a0,a1,22b4 <skip8>
    22b0:	3e50006f          	j	2e94 <fail>

00000000000022b4 <skip8>:
    22b4:	008b0b13          	addi	a4,a4,8
    22b8:	001a0a13          	addi	a2,a2,1
    22bc:	ff5a16e3          	bne	a2,a3,22a8 <test_loop8>
    22c0:	0180006f          	j	22d8 <next8>

00000000000022c4 <vtcode8>:
    22c4:	00000093          	li	ra,0
    22c8:	00008137          	lui	s0,0x8
    22cc:	fff1011b          	addiw	s0,s0,-1
    22d0:	002081b3          	add	s1,ra,s0
    22d4:	00005077          	stop

00000000000022d8 <next8>:
    22d8:	0040200b          	vsetcfg	4,0
    22dc:	00001ab7          	lui	a3,0x1
    22e0:	800a8a9b          	addiw	a3,a3,-2048
    22e4:	000aea8b          	vsetvl	a3,a3
    22e8:	00002937          	lui	a0,0x2
    22ec:	3219262b          	vf	812(a0) # 232c <vtcode9>
    22f0:	00001b17          	auipc	a4,0x1
    22f4:	bd0b0b13          	addi	a4,a4,-1072 # 2ec0 <begin_signature>
    22f8:	060b21fb          	vsd	vx3,a4
    22fc:	0ff0000f          	fence
    2300:	800009b7          	lui	a1,0x80000
    2304:	fff9899b          	addiw	a1,a1,-1
    2308:	00000a13          	li	a2,0
    230c:	00900e13          	li	t2,9

0000000000002310 <test_loop9>:
    2310:	000b3903          	ld	a0,0(a4)
    2314:	01390463          	beq	a0,a1,231c <skip9>
    2318:	37d0006f          	j	2e94 <fail>

000000000000231c <skip9>:
    231c:	008b0b13          	addi	a4,a4,8
    2320:	001a0a13          	addi	a2,a2,1
    2324:	ff5a16e3          	bne	a2,a3,2310 <test_loop9>
    2328:	0180006f          	j	2340 <next9>

000000000000232c <vtcode9>:
    232c:	800000b7          	lui	ra,0x80000
    2330:	fff0809b          	addiw	ra,ra,-1
    2334:	00000113          	li	s0,0
    2338:	002081b3          	add	s1,ra,s0
    233c:	00005077          	stop

0000000000002340 <next9>:
    2340:	0040200b          	vsetcfg	4,0
    2344:	00001ab7          	lui	a3,0x1
    2348:	800a8a9b          	addiw	a3,a3,-2048
    234c:	000aea8b          	vsetvl	a3,a3
    2350:	00002937          	lui	a0,0x2
    2354:	38192e2b          	vf	924(a0) # 239c <vtcode10>
    2358:	00001b17          	auipc	a4,0x1
    235c:	b68b0b13          	addi	a4,a4,-1176 # 2ec0 <begin_signature>
    2360:	060b21fb          	vsd	vx3,a4
    2364:	0ff0000f          	fence
    2368:	001009b7          	lui	a1,0x100
    236c:	00f9899b          	addiw	a1,a1,15
    2370:	00b99993          	slli	a1,a1,0xb
    2374:	7fe98993          	addi	a1,a1,2046 # 1007fe <_end+0xf993e>
    2378:	00000a13          	li	a2,0
    237c:	00a00e13          	li	t2,10

0000000000002380 <test_loop10>:
    2380:	000b3903          	ld	a0,0(a4)
    2384:	01390463          	beq	a0,a1,238c <skip10>
    2388:	30d0006f          	j	2e94 <fail>

000000000000238c <skip10>:
    238c:	008b0b13          	addi	a4,a4,8
    2390:	001a0a13          	addi	a2,a2,1
    2394:	ff5a16e3          	bne	a2,a3,2380 <test_loop10>
    2398:	01c0006f          	j	23b4 <next10>

000000000000239c <vtcode10>:
    239c:	800000b7          	lui	ra,0x80000
    23a0:	fff0809b          	addiw	ra,ra,-1
    23a4:	00008137          	lui	s0,0x8
    23a8:	fff1011b          	addiw	s0,s0,-1
    23ac:	002081b3          	add	s1,ra,s0
    23b0:	00005077          	stop

00000000000023b4 <next10>:
    23b4:	0040200b          	vsetcfg	4,0
    23b8:	00001ab7          	lui	a3,0x1
    23bc:	800a8a9b          	addiw	a3,a3,-2048
    23c0:	000aea8b          	vsetvl	a3,a3
    23c4:	00002937          	lui	a0,0x2
    23c8:	4019242b          	vf	1032(a0) # 2408 <vtcode11>
    23cc:	00001b17          	auipc	a4,0x1
    23d0:	af4b0b13          	addi	a4,a4,-1292 # 2ec0 <begin_signature>
    23d4:	060b21fb          	vsd	vx3,a4
    23d8:	0ff0000f          	fence
    23dc:	800089b7          	lui	a1,0x80008
    23e0:	fff9899b          	addiw	a1,a1,-1
    23e4:	00000a13          	li	a2,0
    23e8:	00b00e13          	li	t2,11

00000000000023ec <test_loop11>:
    23ec:	000b3903          	ld	a0,0(a4)
    23f0:	01390463          	beq	a0,a1,23f8 <skip11>
    23f4:	2a10006f          	j	2e94 <fail>

00000000000023f8 <skip11>:
    23f8:	008b0b13          	addi	a4,a4,8
    23fc:	001a0a13          	addi	a2,a2,1
    2400:	ff5a16e3          	bne	a2,a3,23ec <test_loop11>
    2404:	0180006f          	j	241c <next11>

0000000000002408 <vtcode11>:
    2408:	800000b7          	lui	ra,0x80000
    240c:	00008137          	lui	s0,0x8
    2410:	fff1011b          	addiw	s0,s0,-1
    2414:	002081b3          	add	s1,ra,s0
    2418:	00005077          	stop

000000000000241c <next11>:
    241c:	0040200b          	vsetcfg	4,0
    2420:	00001ab7          	lui	a3,0x1
    2424:	800a8a9b          	addiw	a3,a3,-2048
    2428:	000aea8b          	vsetvl	a3,a3
    242c:	00002937          	lui	a0,0x2
    2430:	4619282b          	vf	1136(a0) # 2470 <vtcode12>
    2434:	00001b17          	auipc	a4,0x1
    2438:	a8cb0b13          	addi	a4,a4,-1396 # 2ec0 <begin_signature>
    243c:	060b21fb          	vsd	vx3,a4
    2440:	0ff0000f          	fence
    2444:	7fff89b7          	lui	a1,0x7fff8
    2448:	fff9899b          	addiw	a1,a1,-1
    244c:	00000a13          	li	a2,0
    2450:	00c00e13          	li	t2,12

0000000000002454 <test_loop12>:
    2454:	000b3903          	ld	a0,0(a4)
    2458:	01390463          	beq	a0,a1,2460 <skip12>
    245c:	2390006f          	j	2e94 <fail>

0000000000002460 <skip12>:
    2460:	008b0b13          	addi	a4,a4,8
    2464:	001a0a13          	addi	a2,a2,1
    2468:	ff5a16e3          	bne	a2,a3,2454 <test_loop12>
    246c:	0180006f          	j	2484 <next12>

0000000000002470 <vtcode12>:
    2470:	800000b7          	lui	ra,0x80000
    2474:	fff0809b          	addiw	ra,ra,-1
    2478:	ffff8137          	lui	s0,0xffff8
    247c:	002081b3          	add	s1,ra,s0
    2480:	00005077          	stop

0000000000002484 <next12>:
    2484:	0040200b          	vsetcfg	4,0
    2488:	00001ab7          	lui	a3,0x1
    248c:	800a8a9b          	addiw	a3,a3,-2048
    2490:	000aea8b          	vsetvl	a3,a3
    2494:	00002937          	lui	a0,0x2
    2498:	4c192a2b          	vf	1236(a0) # 24d4 <vtcode13>
    249c:	00001b17          	auipc	a4,0x1
    24a0:	a24b0b13          	addi	a4,a4,-1500 # 2ec0 <begin_signature>
    24a4:	060b21fb          	vsd	vx3,a4
    24a8:	0ff0000f          	fence
    24ac:	fff00993          	li	a1,-1
    24b0:	00000a13          	li	a2,0
    24b4:	00d00e13          	li	t2,13

00000000000024b8 <test_loop13>:
    24b8:	000b3903          	ld	a0,0(a4)
    24bc:	01390463          	beq	a0,a1,24c4 <skip13>
    24c0:	1d50006f          	j	2e94 <fail>

00000000000024c4 <skip13>:
    24c4:	008b0b13          	addi	a4,a4,8
    24c8:	001a0a13          	addi	a2,a2,1
    24cc:	ff5a16e3          	bne	a2,a3,24b8 <test_loop13>
    24d0:	0140006f          	j	24e4 <next13>

00000000000024d4 <vtcode13>:
    24d4:	00000093          	li	ra,0
    24d8:	fff00113          	li	s0,-1
    24dc:	002081b3          	add	s1,ra,s0
    24e0:	00005077          	stop

00000000000024e4 <next13>:
    24e4:	0040200b          	vsetcfg	4,0
    24e8:	00001ab7          	lui	a3,0x1
    24ec:	800a8a9b          	addiw	a3,a3,-2048
    24f0:	000aea8b          	vsetvl	a3,a3
    24f4:	00002937          	lui	a0,0x2
    24f8:	52192a2b          	vf	1332(a0) # 2534 <vtcode14>
    24fc:	00001b17          	auipc	a4,0x1
    2500:	9c4b0b13          	addi	a4,a4,-1596 # 2ec0 <begin_signature>
    2504:	060b21fb          	vsd	vx3,a4
    2508:	0ff0000f          	fence
    250c:	00000993          	li	a1,0
    2510:	00000a13          	li	a2,0
    2514:	00e00e13          	li	t2,14

0000000000002518 <test_loop14>:
    2518:	000b3903          	ld	a0,0(a4)
    251c:	01390463          	beq	a0,a1,2524 <skip14>
    2520:	1750006f          	j	2e94 <fail>

0000000000002524 <skip14>:
    2524:	008b0b13          	addi	a4,a4,8
    2528:	001a0a13          	addi	a2,a2,1
    252c:	ff5a16e3          	bne	a2,a3,2518 <test_loop14>
    2530:	0140006f          	j	2544 <next14>

0000000000002534 <vtcode14>:
    2534:	fff00093          	li	ra,-1
    2538:	00100113          	li	s0,1
    253c:	002081b3          	add	s1,ra,s0
    2540:	00005077          	stop

0000000000002544 <next14>:
    2544:	0040200b          	vsetcfg	4,0
    2548:	00001ab7          	lui	a3,0x1
    254c:	800a8a9b          	addiw	a3,a3,-2048
    2550:	000aea8b          	vsetvl	a3,a3
    2554:	00002937          	lui	a0,0x2
    2558:	58192a2b          	vf	1428(a0) # 2594 <vtcode15>
    255c:	00001b17          	auipc	a4,0x1
    2560:	964b0b13          	addi	a4,a4,-1692 # 2ec0 <begin_signature>
    2564:	060b21fb          	vsd	vx3,a4
    2568:	0ff0000f          	fence
    256c:	ffe00993          	li	a1,-2
    2570:	00000a13          	li	a2,0
    2574:	00f00e13          	li	t2,15

0000000000002578 <test_loop15>:
    2578:	000b3903          	ld	a0,0(a4)
    257c:	01390463          	beq	a0,a1,2584 <skip15>
    2580:	1150006f          	j	2e94 <fail>

0000000000002584 <skip15>:
    2584:	008b0b13          	addi	a4,a4,8
    2588:	001a0a13          	addi	a2,a2,1
    258c:	ff5a16e3          	bne	a2,a3,2578 <test_loop15>
    2590:	0140006f          	j	25a4 <next15>

0000000000002594 <vtcode15>:
    2594:	fff00093          	li	ra,-1
    2598:	fff00113          	li	s0,-1
    259c:	002081b3          	add	s1,ra,s0
    25a0:	00005077          	stop

00000000000025a4 <next15>:
    25a4:	0040200b          	vsetcfg	4,0
    25a8:	00001ab7          	lui	a3,0x1
    25ac:	800a8a9b          	addiw	a3,a3,-2048
    25b0:	000aea8b          	vsetvl	a3,a3
    25b4:	00002937          	lui	a0,0x2
    25b8:	5e192c2b          	vf	1528(a0) # 25f8 <vtcode16>
    25bc:	00001b17          	auipc	a4,0x1
    25c0:	904b0b13          	addi	a4,a4,-1788 # 2ec0 <begin_signature>
    25c4:	060b21fb          	vsd	vx3,a4
    25c8:	0ff0000f          	fence
    25cc:	001009b7          	lui	a1,0x100
    25d0:	00b99993          	slli	a1,a1,0xb
    25d4:	00000a13          	li	a2,0
    25d8:	01000e13          	li	t2,16

00000000000025dc <test_loop16>:
    25dc:	000b3903          	ld	a0,0(a4)
    25e0:	01390463          	beq	a0,a1,25e8 <skip16>
    25e4:	0b10006f          	j	2e94 <fail>

00000000000025e8 <skip16>:
    25e8:	008b0b13          	addi	a4,a4,8
    25ec:	001a0a13          	addi	a2,a2,1
    25f0:	ff5a16e3          	bne	a2,a3,25dc <test_loop16>
    25f4:	0180006f          	j	260c <next16>

00000000000025f8 <vtcode16>:
    25f8:	00100093          	li	ra,1
    25fc:	80000137          	lui	s0,0x80000
    2600:	fff1011b          	addiw	s0,s0,-1
    2604:	002081b3          	add	s1,ra,s0
    2608:	00005077          	stop

000000000000260c <next16>:
    260c:	0030200b          	vsetcfg	3,0
    2610:	00001ab7          	lui	a3,0x1
    2614:	800a8a9b          	addiw	a3,a3,-2048
    2618:	000aea8b          	vsetvl	a3,a3
    261c:	00002937          	lui	a0,0x2
    2620:	64192e2b          	vf	1628(a0) # 265c <vtcode17>
    2624:	00001b17          	auipc	a4,0x1
    2628:	89cb0b13          	addi	a4,a4,-1892 # 2ec0 <begin_signature>
    262c:	060b20fb          	vsd	vx1,a4
    2630:	0ff0000f          	fence
    2634:	01800993          	li	a1,24
    2638:	00000a13          	li	a2,0
    263c:	01100e13          	li	t2,17

0000000000002640 <test_loop17>:
    2640:	000b3903          	ld	a0,0(a4)
    2644:	01390463          	beq	a0,a1,264c <skip17>
    2648:	04d0006f          	j	2e94 <fail>

000000000000264c <skip17>:
    264c:	008b0b13          	addi	a4,a4,8
    2650:	001a0a13          	addi	a2,a2,1
    2654:	ff5a16e3          	bne	a2,a3,2640 <test_loop17>
    2658:	0140006f          	j	266c <next17>

000000000000265c <vtcode17>:
    265c:	00d00093          	li	ra,13
    2660:	00b00113          	li	s0,11
    2664:	002080b3          	add	ra,ra,s0
    2668:	00005077          	stop

000000000000266c <next17>:
    266c:	0030200b          	vsetcfg	3,0
    2670:	00001ab7          	lui	a3,0x1
    2674:	800a8a9b          	addiw	a3,a3,-2048
    2678:	000aea8b          	vsetvl	a3,a3
    267c:	00002937          	lui	a0,0x2
    2680:	6a192e2b          	vf	1724(a0) # 26bc <vtcode18>
    2684:	00001b17          	auipc	a4,0x1
    2688:	83cb0b13          	addi	a4,a4,-1988 # 2ec0 <begin_signature>
    268c:	060b217b          	vsd	vx2,a4
    2690:	0ff0000f          	fence
    2694:	01900993          	li	a1,25
    2698:	00000a13          	li	a2,0
    269c:	01200e13          	li	t2,18

00000000000026a0 <test_loop18>:
    26a0:	000b3903          	ld	a0,0(a4)
    26a4:	01390463          	beq	a0,a1,26ac <skip18>
    26a8:	7ec0006f          	j	2e94 <fail>

00000000000026ac <skip18>:
    26ac:	008b0b13          	addi	a4,a4,8
    26b0:	001a0a13          	addi	a2,a2,1
    26b4:	ff5a16e3          	bne	a2,a3,26a0 <test_loop18>
    26b8:	0140006f          	j	26cc <next18>

00000000000026bc <vtcode18>:
    26bc:	00e00093          	li	ra,14
    26c0:	00b00113          	li	s0,11
    26c4:	00208133          	add	s0,ra,s0
    26c8:	00005077          	stop

00000000000026cc <next18>:
    26cc:	0020200b          	vsetcfg	2,0
    26d0:	00001ab7          	lui	a3,0x1
    26d4:	800a8a9b          	addiw	a3,a3,-2048
    26d8:	000aea8b          	vsetvl	a3,a3
    26dc:	00002937          	lui	a0,0x2
    26e0:	70192e2b          	vf	1820(a0) # 271c <vtcode19>
    26e4:	00000b17          	auipc	a4,0x0
    26e8:	7dcb0b13          	addi	a4,a4,2012 # 2ec0 <begin_signature>
    26ec:	060b20fb          	vsd	vx1,a4
    26f0:	0ff0000f          	fence
    26f4:	01a00993          	li	a1,26
    26f8:	00000a13          	li	a2,0
    26fc:	01300e13          	li	t2,19

0000000000002700 <test_loop19>:
    2700:	000b3903          	ld	a0,0(a4)
    2704:	01390463          	beq	a0,a1,270c <skip19>
    2708:	78c0006f          	j	2e94 <fail>

000000000000270c <skip19>:
    270c:	008b0b13          	addi	a4,a4,8
    2710:	001a0a13          	addi	a2,a2,1
    2714:	ff5a16e3          	bne	a2,a3,2700 <test_loop19>
    2718:	0100006f          	j	2728 <next19>

000000000000271c <vtcode19>:
    271c:	00d00093          	li	ra,13
    2720:	001080b3          	add	ra,ra,ra
    2724:	00005077          	stop

0000000000002728 <next19>:
    2728:	0050200b          	vsetcfg	5,0
    272c:	00001ab7          	lui	a3,0x1
    2730:	800a8a9b          	addiw	a3,a3,-2048
    2734:	000aea8b          	vsetvl	a3,a3
    2738:	00002937          	lui	a0,0x2
    273c:	76192c2b          	vf	1912(a0) # 2778 <vtcode20>
    2740:	00000b17          	auipc	a4,0x0
    2744:	780b0b13          	addi	a4,a4,1920 # 2ec0 <begin_signature>
    2748:	060b227b          	vsd	vx4,a4
    274c:	0ff0000f          	fence
    2750:	01800993          	li	a1,24
    2754:	00000a13          	li	a2,0
    2758:	01400e13          	li	t2,20

000000000000275c <test_loop20>:
    275c:	000b3903          	ld	a0,0(a4)
    2760:	01390463          	beq	a0,a1,2768 <skip20>
    2764:	7300006f          	j	2e94 <fail>

0000000000002768 <skip20>:
    2768:	008b0b13          	addi	a4,a4,8
    276c:	001a0a13          	addi	a2,a2,1
    2770:	ff5a16e3          	bne	a2,a3,275c <test_loop20>
    2774:	0180006f          	j	278c <next20>

0000000000002778 <vtcode20>:
    2778:	00d00093          	li	ra,13
    277c:	00b00113          	li	s0,11
    2780:	002081b3          	add	s1,ra,s0
    2784:	00018213          	mv	s2,s1
    2788:	00005077          	stop

000000000000278c <next20>:
    278c:	0050200b          	vsetcfg	5,0
    2790:	00001ab7          	lui	a3,0x1
    2794:	800a8a9b          	addiw	a3,a3,-2048
    2798:	000aea8b          	vsetvl	a3,a3
    279c:	00002937          	lui	a0,0x2
    27a0:	7c192e2b          	vf	2012(a0) # 27dc <vtcode21>
    27a4:	00000b17          	auipc	a4,0x0
    27a8:	71cb0b13          	addi	a4,a4,1820 # 2ec0 <begin_signature>
    27ac:	060b227b          	vsd	vx4,a4
    27b0:	0ff0000f          	fence
    27b4:	01900993          	li	a1,25
    27b8:	00000a13          	li	a2,0
    27bc:	01500e13          	li	t2,21

00000000000027c0 <test_loop21>:
    27c0:	000b3903          	ld	a0,0(a4)
    27c4:	01390463          	beq	a0,a1,27cc <skip21>
    27c8:	6cc0006f          	j	2e94 <fail>

00000000000027cc <skip21>:
    27cc:	008b0b13          	addi	a4,a4,8
    27d0:	001a0a13          	addi	a2,a2,1
    27d4:	ff5a16e3          	bne	a2,a3,27c0 <test_loop21>
    27d8:	01c0006f          	j	27f4 <next21>

00000000000027dc <vtcode21>:
    27dc:	00e00093          	li	ra,14
    27e0:	00b00113          	li	s0,11
    27e4:	002081b3          	add	s1,ra,s0
    27e8:	00000013          	nop
    27ec:	00018213          	mv	s2,s1
    27f0:	00005077          	stop

00000000000027f4 <next21>:
    27f4:	0050200b          	vsetcfg	5,0
    27f8:	00001ab7          	lui	a3,0x1
    27fc:	800a8a9b          	addiw	a3,a3,-2048
    2800:	000aea8b          	vsetvl	a3,a3
    2804:	00003937          	lui	a0,0x3
    2808:	8419222b          	vf	-1980(a0) # 2844 <vtcode22>
    280c:	00000b17          	auipc	a4,0x0
    2810:	6b4b0b13          	addi	a4,a4,1716 # 2ec0 <begin_signature>
    2814:	060b227b          	vsd	vx4,a4
    2818:	0ff0000f          	fence
    281c:	01a00993          	li	a1,26
    2820:	00000a13          	li	a2,0
    2824:	01600e13          	li	t2,22

0000000000002828 <test_loop22>:
    2828:	000b3903          	ld	a0,0(a4)
    282c:	01390463          	beq	a0,a1,2834 <skip22>
    2830:	6640006f          	j	2e94 <fail>

0000000000002834 <skip22>:
    2834:	008b0b13          	addi	a4,a4,8
    2838:	001a0a13          	addi	a2,a2,1
    283c:	ff5a16e3          	bne	a2,a3,2828 <test_loop22>
    2840:	0200006f          	j	2860 <next22>

0000000000002844 <vtcode22>:
    2844:	00f00093          	li	ra,15
    2848:	00b00113          	li	s0,11
    284c:	002081b3          	add	s1,ra,s0
    2850:	00000013          	nop
    2854:	00000013          	nop
    2858:	00018213          	mv	s2,s1
    285c:	00005077          	stop

0000000000002860 <next22>:
    2860:	0040200b          	vsetcfg	4,0
    2864:	00001ab7          	lui	a3,0x1
    2868:	800a8a9b          	addiw	a3,a3,-2048
    286c:	000aea8b          	vsetvl	a3,a3
    2870:	00003937          	lui	a0,0x3
    2874:	8a19282b          	vf	-1872(a0) # 28b0 <vtcode23>
    2878:	00000b17          	auipc	a4,0x0
    287c:	648b0b13          	addi	a4,a4,1608 # 2ec0 <begin_signature>
    2880:	060b21fb          	vsd	vx3,a4
    2884:	0ff0000f          	fence
    2888:	01800993          	li	a1,24
    288c:	00000a13          	li	a2,0
    2890:	01700e13          	li	t2,23

0000000000002894 <test_loop23>:
    2894:	000b3903          	ld	a0,0(a4)
    2898:	01390463          	beq	a0,a1,28a0 <skip23>
    289c:	5f80006f          	j	2e94 <fail>

00000000000028a0 <skip23>:
    28a0:	008b0b13          	addi	a4,a4,8
    28a4:	001a0a13          	addi	a2,a2,1
    28a8:	ff5a16e3          	bne	a2,a3,2894 <test_loop23>
    28ac:	0140006f          	j	28c0 <next23>

00000000000028b0 <vtcode23>:
    28b0:	00d00093          	li	ra,13
    28b4:	00b00113          	li	s0,11
    28b8:	002081b3          	add	s1,ra,s0
    28bc:	00005077          	stop

00000000000028c0 <next23>:
    28c0:	0040200b          	vsetcfg	4,0
    28c4:	00001ab7          	lui	a3,0x1
    28c8:	800a8a9b          	addiw	a3,a3,-2048
    28cc:	000aea8b          	vsetvl	a3,a3
    28d0:	00003937          	lui	a0,0x3
    28d4:	9019282b          	vf	-1776(a0) # 2910 <vtcode24>
    28d8:	00000b17          	auipc	a4,0x0
    28dc:	5e8b0b13          	addi	a4,a4,1512 # 2ec0 <begin_signature>
    28e0:	060b21fb          	vsd	vx3,a4
    28e4:	0ff0000f          	fence
    28e8:	01900993          	li	a1,25
    28ec:	00000a13          	li	a2,0
    28f0:	01800e13          	li	t2,24

00000000000028f4 <test_loop24>:
    28f4:	000b3903          	ld	a0,0(a4)
    28f8:	01390463          	beq	a0,a1,2900 <skip24>
    28fc:	5980006f          	j	2e94 <fail>

0000000000002900 <skip24>:
    2900:	008b0b13          	addi	a4,a4,8
    2904:	001a0a13          	addi	a2,a2,1
    2908:	ff5a16e3          	bne	a2,a3,28f4 <test_loop24>
    290c:	0180006f          	j	2924 <next24>

0000000000002910 <vtcode24>:
    2910:	00e00093          	li	ra,14
    2914:	00b00113          	li	s0,11
    2918:	00000013          	nop
    291c:	002081b3          	add	s1,ra,s0
    2920:	00005077          	stop

0000000000002924 <next24>:
    2924:	0040200b          	vsetcfg	4,0
    2928:	00001ab7          	lui	a3,0x1
    292c:	800a8a9b          	addiw	a3,a3,-2048
    2930:	000aea8b          	vsetvl	a3,a3
    2934:	00003937          	lui	a0,0x3
    2938:	96192a2b          	vf	-1676(a0) # 2974 <vtcode25>
    293c:	00000b17          	auipc	a4,0x0
    2940:	584b0b13          	addi	a4,a4,1412 # 2ec0 <begin_signature>
    2944:	060b21fb          	vsd	vx3,a4
    2948:	0ff0000f          	fence
    294c:	01a00993          	li	a1,26
    2950:	00000a13          	li	a2,0
    2954:	01900e13          	li	t2,25

0000000000002958 <test_loop25>:
    2958:	000b3903          	ld	a0,0(a4)
    295c:	01390463          	beq	a0,a1,2964 <skip25>
    2960:	5340006f          	j	2e94 <fail>

0000000000002964 <skip25>:
    2964:	008b0b13          	addi	a4,a4,8
    2968:	001a0a13          	addi	a2,a2,1
    296c:	ff5a16e3          	bne	a2,a3,2958 <test_loop25>
    2970:	01c0006f          	j	298c <next25>

0000000000002974 <vtcode25>:
    2974:	00f00093          	li	ra,15
    2978:	00b00113          	li	s0,11
    297c:	00000013          	nop
    2980:	00000013          	nop
    2984:	002081b3          	add	s1,ra,s0
    2988:	00005077          	stop

000000000000298c <next25>:
    298c:	0040200b          	vsetcfg	4,0
    2990:	00001ab7          	lui	a3,0x1
    2994:	800a8a9b          	addiw	a3,a3,-2048
    2998:	000aea8b          	vsetvl	a3,a3
    299c:	00003937          	lui	a0,0x3
    29a0:	9c192e2b          	vf	-1572(a0) # 29dc <vtcode26>
    29a4:	00000b17          	auipc	a4,0x0
    29a8:	51cb0b13          	addi	a4,a4,1308 # 2ec0 <begin_signature>
    29ac:	060b21fb          	vsd	vx3,a4
    29b0:	0ff0000f          	fence
    29b4:	01800993          	li	a1,24
    29b8:	00000a13          	li	a2,0
    29bc:	01a00e13          	li	t2,26

00000000000029c0 <test_loop26>:
    29c0:	000b3903          	ld	a0,0(a4)
    29c4:	01390463          	beq	a0,a1,29cc <skip26>
    29c8:	4cc0006f          	j	2e94 <fail>

00000000000029cc <skip26>:
    29cc:	008b0b13          	addi	a4,a4,8
    29d0:	001a0a13          	addi	a2,a2,1
    29d4:	ff5a16e3          	bne	a2,a3,29c0 <test_loop26>
    29d8:	0180006f          	j	29f0 <next26>

00000000000029dc <vtcode26>:
    29dc:	00d00093          	li	ra,13
    29e0:	00000013          	nop
    29e4:	00b00113          	li	s0,11
    29e8:	002081b3          	add	s1,ra,s0
    29ec:	00005077          	stop

00000000000029f0 <next26>:
    29f0:	0040200b          	vsetcfg	4,0
    29f4:	00001ab7          	lui	a3,0x1
    29f8:	800a8a9b          	addiw	a3,a3,-2048
    29fc:	000aea8b          	vsetvl	a3,a3
    2a00:	00003937          	lui	a0,0x3
    2a04:	a419202b          	vf	-1472(a0) # 2a40 <vtcode27>
    2a08:	00000b17          	auipc	a4,0x0
    2a0c:	4b8b0b13          	addi	a4,a4,1208 # 2ec0 <begin_signature>
    2a10:	060b21fb          	vsd	vx3,a4
    2a14:	0ff0000f          	fence
    2a18:	01900993          	li	a1,25
    2a1c:	00000a13          	li	a2,0
    2a20:	01b00e13          	li	t2,27

0000000000002a24 <test_loop27>:
    2a24:	000b3903          	ld	a0,0(a4)
    2a28:	01390463          	beq	a0,a1,2a30 <skip27>
    2a2c:	4680006f          	j	2e94 <fail>

0000000000002a30 <skip27>:
    2a30:	008b0b13          	addi	a4,a4,8
    2a34:	001a0a13          	addi	a2,a2,1
    2a38:	ff5a16e3          	bne	a2,a3,2a24 <test_loop27>
    2a3c:	01c0006f          	j	2a58 <next27>

0000000000002a40 <vtcode27>:
    2a40:	00e00093          	li	ra,14
    2a44:	00000013          	nop
    2a48:	00b00113          	li	s0,11
    2a4c:	00000013          	nop
    2a50:	002081b3          	add	s1,ra,s0
    2a54:	00005077          	stop

0000000000002a58 <next27>:
    2a58:	0040200b          	vsetcfg	4,0
    2a5c:	00001ab7          	lui	a3,0x1
    2a60:	800a8a9b          	addiw	a3,a3,-2048
    2a64:	000aea8b          	vsetvl	a3,a3
    2a68:	00003937          	lui	a0,0x3
    2a6c:	aa19242b          	vf	-1368(a0) # 2aa8 <vtcode28>
    2a70:	00000b17          	auipc	a4,0x0
    2a74:	450b0b13          	addi	a4,a4,1104 # 2ec0 <begin_signature>
    2a78:	060b21fb          	vsd	vx3,a4
    2a7c:	0ff0000f          	fence
    2a80:	01a00993          	li	a1,26
    2a84:	00000a13          	li	a2,0
    2a88:	01c00e13          	li	t2,28

0000000000002a8c <test_loop28>:
    2a8c:	000b3903          	ld	a0,0(a4)
    2a90:	01390463          	beq	a0,a1,2a98 <skip28>
    2a94:	4000006f          	j	2e94 <fail>

0000000000002a98 <skip28>:
    2a98:	008b0b13          	addi	a4,a4,8
    2a9c:	001a0a13          	addi	a2,a2,1
    2aa0:	ff5a16e3          	bne	a2,a3,2a8c <test_loop28>
    2aa4:	01c0006f          	j	2ac0 <next28>

0000000000002aa8 <vtcode28>:
    2aa8:	00f00093          	li	ra,15
    2aac:	00000013          	nop
    2ab0:	00000013          	nop
    2ab4:	00b00113          	li	s0,11
    2ab8:	002081b3          	add	s1,ra,s0
    2abc:	00005077          	stop

0000000000002ac0 <next28>:
    2ac0:	0040200b          	vsetcfg	4,0
    2ac4:	00001ab7          	lui	a3,0x1
    2ac8:	800a8a9b          	addiw	a3,a3,-2048
    2acc:	000aea8b          	vsetvl	a3,a3
    2ad0:	00003937          	lui	a0,0x3
    2ad4:	b019282b          	vf	-1264(a0) # 2b10 <vtcode29>
    2ad8:	00000b17          	auipc	a4,0x0
    2adc:	3e8b0b13          	addi	a4,a4,1000 # 2ec0 <begin_signature>
    2ae0:	060b21fb          	vsd	vx3,a4
    2ae4:	0ff0000f          	fence
    2ae8:	01800993          	li	a1,24
    2aec:	00000a13          	li	a2,0
    2af0:	01d00e13          	li	t2,29

0000000000002af4 <test_loop29>:
    2af4:	000b3903          	ld	a0,0(a4)
    2af8:	01390463          	beq	a0,a1,2b00 <skip29>
    2afc:	3980006f          	j	2e94 <fail>

0000000000002b00 <skip29>:
    2b00:	008b0b13          	addi	a4,a4,8
    2b04:	001a0a13          	addi	a2,a2,1
    2b08:	ff5a16e3          	bne	a2,a3,2af4 <test_loop29>
    2b0c:	0140006f          	j	2b20 <next29>

0000000000002b10 <vtcode29>:
    2b10:	00b00113          	li	s0,11
    2b14:	00d00093          	li	ra,13
    2b18:	002081b3          	add	s1,ra,s0
    2b1c:	00005077          	stop

0000000000002b20 <next29>:
    2b20:	0040200b          	vsetcfg	4,0
    2b24:	00001ab7          	lui	a3,0x1
    2b28:	800a8a9b          	addiw	a3,a3,-2048
    2b2c:	000aea8b          	vsetvl	a3,a3
    2b30:	00003937          	lui	a0,0x3
    2b34:	b619282b          	vf	-1168(a0) # 2b70 <vtcode30>
    2b38:	00000b17          	auipc	a4,0x0
    2b3c:	388b0b13          	addi	a4,a4,904 # 2ec0 <begin_signature>
    2b40:	060b21fb          	vsd	vx3,a4
    2b44:	0ff0000f          	fence
    2b48:	01900993          	li	a1,25
    2b4c:	00000a13          	li	a2,0
    2b50:	01e00e13          	li	t2,30

0000000000002b54 <test_loop30>:
    2b54:	000b3903          	ld	a0,0(a4)
    2b58:	01390463          	beq	a0,a1,2b60 <skip30>
    2b5c:	3380006f          	j	2e94 <fail>

0000000000002b60 <skip30>:
    2b60:	008b0b13          	addi	a4,a4,8
    2b64:	001a0a13          	addi	a2,a2,1
    2b68:	ff5a16e3          	bne	a2,a3,2b54 <test_loop30>
    2b6c:	0180006f          	j	2b84 <next30>

0000000000002b70 <vtcode30>:
    2b70:	00b00113          	li	s0,11
    2b74:	00e00093          	li	ra,14
    2b78:	00000013          	nop
    2b7c:	002081b3          	add	s1,ra,s0
    2b80:	00005077          	stop

0000000000002b84 <next30>:
    2b84:	0040200b          	vsetcfg	4,0
    2b88:	00001ab7          	lui	a3,0x1
    2b8c:	800a8a9b          	addiw	a3,a3,-2048
    2b90:	000aea8b          	vsetvl	a3,a3
    2b94:	00003937          	lui	a0,0x3
    2b98:	bc192a2b          	vf	-1068(a0) # 2bd4 <vtcode31>
    2b9c:	00000b17          	auipc	a4,0x0
    2ba0:	324b0b13          	addi	a4,a4,804 # 2ec0 <begin_signature>
    2ba4:	060b21fb          	vsd	vx3,a4
    2ba8:	0ff0000f          	fence
    2bac:	01a00993          	li	a1,26
    2bb0:	00000a13          	li	a2,0
    2bb4:	01f00e13          	li	t2,31

0000000000002bb8 <test_loop31>:
    2bb8:	000b3903          	ld	a0,0(a4)
    2bbc:	01390463          	beq	a0,a1,2bc4 <skip31>
    2bc0:	2d40006f          	j	2e94 <fail>

0000000000002bc4 <skip31>:
    2bc4:	008b0b13          	addi	a4,a4,8
    2bc8:	001a0a13          	addi	a2,a2,1
    2bcc:	ff5a16e3          	bne	a2,a3,2bb8 <test_loop31>
    2bd0:	01c0006f          	j	2bec <next31>

0000000000002bd4 <vtcode31>:
    2bd4:	00b00113          	li	s0,11
    2bd8:	00f00093          	li	ra,15
    2bdc:	00000013          	nop
    2be0:	00000013          	nop
    2be4:	002081b3          	add	s1,ra,s0
    2be8:	00005077          	stop

0000000000002bec <next31>:
    2bec:	0040200b          	vsetcfg	4,0
    2bf0:	00001ab7          	lui	a3,0x1
    2bf4:	800a8a9b          	addiw	a3,a3,-2048
    2bf8:	000aea8b          	vsetvl	a3,a3
    2bfc:	00003937          	lui	a0,0x3
    2c00:	c2192e2b          	vf	-964(a0) # 2c3c <vtcode32>
    2c04:	00000b17          	auipc	a4,0x0
    2c08:	2bcb0b13          	addi	a4,a4,700 # 2ec0 <begin_signature>
    2c0c:	060b21fb          	vsd	vx3,a4
    2c10:	0ff0000f          	fence
    2c14:	01800993          	li	a1,24
    2c18:	00000a13          	li	a2,0
    2c1c:	02000e13          	li	t2,32

0000000000002c20 <test_loop32>:
    2c20:	000b3903          	ld	a0,0(a4)
    2c24:	01390463          	beq	a0,a1,2c2c <skip32>
    2c28:	26c0006f          	j	2e94 <fail>

0000000000002c2c <skip32>:
    2c2c:	008b0b13          	addi	a4,a4,8
    2c30:	001a0a13          	addi	a2,a2,1
    2c34:	ff5a16e3          	bne	a2,a3,2c20 <test_loop32>
    2c38:	0180006f          	j	2c50 <next32>

0000000000002c3c <vtcode32>:
    2c3c:	00b00113          	li	s0,11
    2c40:	00000013          	nop
    2c44:	00d00093          	li	ra,13
    2c48:	002081b3          	add	s1,ra,s0
    2c4c:	00005077          	stop

0000000000002c50 <next32>:
    2c50:	0040200b          	vsetcfg	4,0
    2c54:	00001ab7          	lui	a3,0x1
    2c58:	800a8a9b          	addiw	a3,a3,-2048
    2c5c:	000aea8b          	vsetvl	a3,a3
    2c60:	00003937          	lui	a0,0x3
    2c64:	ca19202b          	vf	-864(a0) # 2ca0 <vtcode33>
    2c68:	00000b17          	auipc	a4,0x0
    2c6c:	258b0b13          	addi	a4,a4,600 # 2ec0 <begin_signature>
    2c70:	060b21fb          	vsd	vx3,a4
    2c74:	0ff0000f          	fence
    2c78:	01900993          	li	a1,25
    2c7c:	00000a13          	li	a2,0
    2c80:	02100e13          	li	t2,33

0000000000002c84 <test_loop33>:
    2c84:	000b3903          	ld	a0,0(a4)
    2c88:	01390463          	beq	a0,a1,2c90 <skip33>
    2c8c:	2080006f          	j	2e94 <fail>

0000000000002c90 <skip33>:
    2c90:	008b0b13          	addi	a4,a4,8
    2c94:	001a0a13          	addi	a2,a2,1
    2c98:	ff5a16e3          	bne	a2,a3,2c84 <test_loop33>
    2c9c:	01c0006f          	j	2cb8 <next33>

0000000000002ca0 <vtcode33>:
    2ca0:	00b00113          	li	s0,11
    2ca4:	00000013          	nop
    2ca8:	00e00093          	li	ra,14
    2cac:	00000013          	nop
    2cb0:	002081b3          	add	s1,ra,s0
    2cb4:	00005077          	stop

0000000000002cb8 <next33>:
    2cb8:	0040200b          	vsetcfg	4,0
    2cbc:	00001ab7          	lui	a3,0x1
    2cc0:	800a8a9b          	addiw	a3,a3,-2048
    2cc4:	000aea8b          	vsetvl	a3,a3
    2cc8:	00003937          	lui	a0,0x3
    2ccc:	d019242b          	vf	-760(a0) # 2d08 <vtcode34>
    2cd0:	00000b17          	auipc	a4,0x0
    2cd4:	1f0b0b13          	addi	a4,a4,496 # 2ec0 <begin_signature>
    2cd8:	060b21fb          	vsd	vx3,a4
    2cdc:	0ff0000f          	fence
    2ce0:	01a00993          	li	a1,26
    2ce4:	00000a13          	li	a2,0
    2ce8:	02200e13          	li	t2,34

0000000000002cec <test_loop34>:
    2cec:	000b3903          	ld	a0,0(a4)
    2cf0:	01390463          	beq	a0,a1,2cf8 <skip34>
    2cf4:	1a00006f          	j	2e94 <fail>

0000000000002cf8 <skip34>:
    2cf8:	008b0b13          	addi	a4,a4,8
    2cfc:	001a0a13          	addi	a2,a2,1
    2d00:	ff5a16e3          	bne	a2,a3,2cec <test_loop34>
    2d04:	01c0006f          	j	2d20 <next34>

0000000000002d08 <vtcode34>:
    2d08:	00b00113          	li	s0,11
    2d0c:	00000013          	nop
    2d10:	00000013          	nop
    2d14:	00f00093          	li	ra,15
    2d18:	002081b3          	add	s1,ra,s0
    2d1c:	00005077          	stop

0000000000002d20 <next34>:
    2d20:	0030200b          	vsetcfg	3,0
    2d24:	00001ab7          	lui	a3,0x1
    2d28:	800a8a9b          	addiw	a3,a3,-2048
    2d2c:	000aea8b          	vsetvl	a3,a3
    2d30:	00003937          	lui	a0,0x3
    2d34:	d619282b          	vf	-656(a0) # 2d70 <vtcode35>
    2d38:	00000b17          	auipc	a4,0x0
    2d3c:	188b0b13          	addi	a4,a4,392 # 2ec0 <begin_signature>
    2d40:	060b217b          	vsd	vx2,a4
    2d44:	0ff0000f          	fence
    2d48:	00f00993          	li	a1,15
    2d4c:	00000a13          	li	a2,0
    2d50:	02300e13          	li	t2,35

0000000000002d54 <test_loop35>:
    2d54:	000b3903          	ld	a0,0(a4)
    2d58:	01390463          	beq	a0,a1,2d60 <skip35>
    2d5c:	1380006f          	j	2e94 <fail>

0000000000002d60 <skip35>:
    2d60:	008b0b13          	addi	a4,a4,8
    2d64:	001a0a13          	addi	a2,a2,1
    2d68:	ff5a16e3          	bne	a2,a3,2d54 <test_loop35>
    2d6c:	0100006f          	j	2d7c <next35>

0000000000002d70 <vtcode35>:
    2d70:	00f00093          	li	ra,15
    2d74:	00100133          	add	s0,zero,ra
    2d78:	00005077          	stop

0000000000002d7c <next35>:
    2d7c:	0030200b          	vsetcfg	3,0
    2d80:	00001ab7          	lui	a3,0x1
    2d84:	800a8a9b          	addiw	a3,a3,-2048
    2d88:	000aea8b          	vsetvl	a3,a3
    2d8c:	00003937          	lui	a0,0x3
    2d90:	dc19262b          	vf	-564(a0) # 2dcc <vtcode36>
    2d94:	00000b17          	auipc	a4,0x0
    2d98:	12cb0b13          	addi	a4,a4,300 # 2ec0 <begin_signature>
    2d9c:	060b217b          	vsd	vx2,a4
    2da0:	0ff0000f          	fence
    2da4:	02000993          	li	a1,32
    2da8:	00000a13          	li	a2,0
    2dac:	02400e13          	li	t2,36

0000000000002db0 <test_loop36>:
    2db0:	000b3903          	ld	a0,0(a4)
    2db4:	01390463          	beq	a0,a1,2dbc <skip36>
    2db8:	0dc0006f          	j	2e94 <fail>

0000000000002dbc <skip36>:
    2dbc:	008b0b13          	addi	a4,a4,8
    2dc0:	001a0a13          	addi	a2,a2,1
    2dc4:	ff5a16e3          	bne	a2,a3,2db0 <test_loop36>
    2dc8:	0100006f          	j	2dd8 <next36>

0000000000002dcc <vtcode36>:
    2dcc:	02000093          	li	ra,32
    2dd0:	00008133          	add	s0,ra,zero
    2dd4:	00005077          	stop

0000000000002dd8 <next36>:
    2dd8:	0020200b          	vsetcfg	2,0
    2ddc:	00001ab7          	lui	a3,0x1
    2de0:	800a8a9b          	addiw	a3,a3,-2048
    2de4:	000aea8b          	vsetvl	a3,a3
    2de8:	00003937          	lui	a0,0x3
    2dec:	e219242b          	vf	-472(a0) # 2e28 <vtcode37>
    2df0:	00000b17          	auipc	a4,0x0
    2df4:	0d0b0b13          	addi	a4,a4,208 # 2ec0 <begin_signature>
    2df8:	060b20fb          	vsd	vx1,a4
    2dfc:	0ff0000f          	fence
    2e00:	00000993          	li	a1,0
    2e04:	00000a13          	li	a2,0
    2e08:	02500e13          	li	t2,37

0000000000002e0c <test_loop37>:
    2e0c:	000b3903          	ld	a0,0(a4)
    2e10:	01390463          	beq	a0,a1,2e18 <skip37>
    2e14:	0800006f          	j	2e94 <fail>

0000000000002e18 <skip37>:
    2e18:	008b0b13          	addi	a4,a4,8
    2e1c:	001a0a13          	addi	a2,a2,1
    2e20:	ff5a16e3          	bne	a2,a3,2e0c <test_loop37>
    2e24:	00c0006f          	j	2e30 <next37>

0000000000002e28 <vtcode37>:
    2e28:	000000b3          	add	ra,zero,zero
    2e2c:	00005077          	stop

0000000000002e30 <next37>:
    2e30:	0030200b          	vsetcfg	3,0
    2e34:	00001ab7          	lui	a3,0x1
    2e38:	800a8a9b          	addiw	a3,a3,-2048
    2e3c:	000aea8b          	vsetvl	a3,a3
    2e40:	00003937          	lui	a0,0x3
    2e44:	e819202b          	vf	-384(a0) # 2e80 <vtcode38>
    2e48:	00000b17          	auipc	a4,0x0
    2e4c:	078b0b13          	addi	a4,a4,120 # 2ec0 <begin_signature>
    2e50:	060b207b          	vsd	vx0,a4
    2e54:	0ff0000f          	fence
    2e58:	00000993          	li	a1,0
    2e5c:	00000a13          	li	a2,0
    2e60:	02600e13          	li	t2,38

0000000000002e64 <test_loop38>:
    2e64:	000b3903          	ld	a0,0(a4)
    2e68:	01390463          	beq	a0,a1,2e70 <skip38>
    2e6c:	0280006f          	j	2e94 <fail>

0000000000002e70 <skip38>:
    2e70:	008b0b13          	addi	a4,a4,8
    2e74:	001a0a13          	addi	a2,a2,1
    2e78:	ff5a16e3          	bne	a2,a3,2e64 <test_loop38>
    2e7c:	0140006f          	j	2e90 <next38>

0000000000002e80 <vtcode38>:
    2e80:	01000093          	li	ra,16
    2e84:	01e00113          	li	s0,30
    2e88:	00208033          	add	zero,ra,s0
    2e8c:	00005077          	stop

0000000000002e90 <next38>:
    2e90:	01c01e63          	bne	zero,t2,2eac <pass>

0000000000002e94 <fail>:
    2e94:	0ff0000f          	fence
    2e98:	000e0863          	beqz	t2,2ea8 <fail+0x14>
    2e9c:	001e1e13          	slli	t2,t2,0x1
    2ea0:	001e6e13          	ori	t2,t2,1
    2ea4:	51ee1073          	csrw	tohost,t2
    2ea8:	00000063          	b	2ea8 <fail+0x14>

0000000000002eac <pass>:
    2eac:	0ff0000f          	fence
    2eb0:	51e0d073          	csrwi	tohost,1
    2eb4:	00000063          	b	2eb4 <pass+0x8>
    2eb8:	00000013          	nop
    2ebc:	00000013          	nop
