
rv64ui-p-sltiu:     file format elf64-littleriscv


Disassembly of section .text:

0000000000002000 <_start>:
    2000:	50b02973          	csrr	a0,hartid
    2004:	00091063          	bnez	a0,2004 <_start+0x4>

0000000000002008 <test_2>:
    2008:	00000093          	li	ra,0
    200c:	0000b193          	sltiu	s1,ra,0
    2010:	00000e93          	li	t3,0
    2014:	00200e13          	li	t2,2
    2018:	27d19263          	bne	s1,t3,227c <fail>

000000000000201c <test_3>:
    201c:	00100093          	li	ra,1
    2020:	0010b193          	seqz	s1,ra
    2024:	00000e93          	li	t3,0
    2028:	00300e13          	li	t2,3
    202c:	25d19863          	bne	s1,t3,227c <fail>

0000000000002030 <test_4>:
    2030:	00300093          	li	ra,3
    2034:	0070b193          	sltiu	s1,ra,7
    2038:	00100e93          	li	t3,1
    203c:	00400e13          	li	t2,4
    2040:	23d19e63          	bne	s1,t3,227c <fail>

0000000000002044 <test_5>:
    2044:	00700093          	li	ra,7
    2048:	0030b193          	sltiu	s1,ra,3
    204c:	00000e93          	li	t3,0
    2050:	00500e13          	li	t2,5
    2054:	23d19463          	bne	s1,t3,227c <fail>

0000000000002058 <test_6>:
    2058:	00000093          	li	ra,0
    205c:	8000b193          	sltiu	s1,ra,-2048
    2060:	00100e93          	li	t3,1
    2064:	00600e13          	li	t2,6
    2068:	21d19a63          	bne	s1,t3,227c <fail>

000000000000206c <test_7>:
    206c:	800000b7          	lui	ra,0x80000
    2070:	0000b193          	sltiu	s1,ra,0
    2074:	00000e93          	li	t3,0
    2078:	00700e13          	li	t2,7
    207c:	21d19063          	bne	s1,t3,227c <fail>

0000000000002080 <test_8>:
    2080:	800000b7          	lui	ra,0x80000
    2084:	8000b193          	sltiu	s1,ra,-2048
    2088:	00100e93          	li	t3,1
    208c:	00800e13          	li	t2,8
    2090:	1fd19663          	bne	s1,t3,227c <fail>

0000000000002094 <test_9>:
    2094:	00000093          	li	ra,0
    2098:	7ff0b193          	sltiu	s1,ra,2047
    209c:	00100e93          	li	t3,1
    20a0:	00900e13          	li	t2,9
    20a4:	1dd19c63          	bne	s1,t3,227c <fail>

00000000000020a8 <test_10>:
    20a8:	800000b7          	lui	ra,0x80000
    20ac:	fff0809b          	addiw	ra,ra,-1
    20b0:	0000b193          	sltiu	s1,ra,0
    20b4:	00000e93          	li	t3,0
    20b8:	00a00e13          	li	t2,10
    20bc:	1dd19063          	bne	s1,t3,227c <fail>

00000000000020c0 <test_11>:
    20c0:	800000b7          	lui	ra,0x80000
    20c4:	fff0809b          	addiw	ra,ra,-1
    20c8:	7ff0b193          	sltiu	s1,ra,2047
    20cc:	00000e93          	li	t3,0
    20d0:	00b00e13          	li	t2,11
    20d4:	1bd19463          	bne	s1,t3,227c <fail>

00000000000020d8 <test_12>:
    20d8:	800000b7          	lui	ra,0x80000
    20dc:	7ff0b193          	sltiu	s1,ra,2047
    20e0:	00000e93          	li	t3,0
    20e4:	00c00e13          	li	t2,12
    20e8:	19d19a63          	bne	s1,t3,227c <fail>

00000000000020ec <test_13>:
    20ec:	800000b7          	lui	ra,0x80000
    20f0:	fff0809b          	addiw	ra,ra,-1
    20f4:	8000b193          	sltiu	s1,ra,-2048
    20f8:	00100e93          	li	t3,1
    20fc:	00d00e13          	li	t2,13
    2100:	17d19e63          	bne	s1,t3,227c <fail>

0000000000002104 <test_14>:
    2104:	00000093          	li	ra,0
    2108:	fff0b193          	sltiu	s1,ra,-1
    210c:	00100e93          	li	t3,1
    2110:	00e00e13          	li	t2,14
    2114:	17d19463          	bne	s1,t3,227c <fail>

0000000000002118 <test_15>:
    2118:	fff00093          	li	ra,-1
    211c:	0010b193          	seqz	s1,ra
    2120:	00000e93          	li	t3,0
    2124:	00f00e13          	li	t2,15
    2128:	15d19a63          	bne	s1,t3,227c <fail>

000000000000212c <test_16>:
    212c:	fff00093          	li	ra,-1
    2130:	fff0b193          	sltiu	s1,ra,-1
    2134:	00000e93          	li	t3,0
    2138:	01000e13          	li	t2,16
    213c:	15d19063          	bne	s1,t3,227c <fail>

0000000000002140 <test_17>:
    2140:	00b00093          	li	ra,11
    2144:	00d0b093          	sltiu	ra,ra,13
    2148:	00100e93          	li	t3,1
    214c:	01100e13          	li	t2,17
    2150:	13d09663          	bne	ra,t3,227c <fail>

0000000000002154 <test_18>:
    2154:	00000213          	li	s2,0
    2158:	00f00093          	li	ra,15
    215c:	00a0b193          	sltiu	s1,ra,10
    2160:	00018313          	mv	s4,s1
    2164:	00120213          	addi	s2,s2,1
    2168:	00200293          	li	s3,2
    216c:	fe5216e3          	bne	s2,s3,2158 <test_18+0x4>
    2170:	00000e93          	li	t3,0
    2174:	01200e13          	li	t2,18
    2178:	11d31263          	bne	s4,t3,227c <fail>

000000000000217c <test_19>:
    217c:	00000213          	li	s2,0
    2180:	00a00093          	li	ra,10
    2184:	0100b193          	sltiu	s1,ra,16
    2188:	00000013          	nop
    218c:	00018313          	mv	s4,s1
    2190:	00120213          	addi	s2,s2,1
    2194:	00200293          	li	s3,2
    2198:	fe5214e3          	bne	s2,s3,2180 <test_19+0x4>
    219c:	00100e93          	li	t3,1
    21a0:	01300e13          	li	t2,19
    21a4:	0dd31c63          	bne	s4,t3,227c <fail>

00000000000021a8 <test_20>:
    21a8:	00000213          	li	s2,0
    21ac:	01000093          	li	ra,16
    21b0:	0090b193          	sltiu	s1,ra,9
    21b4:	00000013          	nop
    21b8:	00000013          	nop
    21bc:	00018313          	mv	s4,s1
    21c0:	00120213          	addi	s2,s2,1
    21c4:	00200293          	li	s3,2
    21c8:	fe5212e3          	bne	s2,s3,21ac <test_20+0x4>
    21cc:	00000e93          	li	t3,0
    21d0:	01400e13          	li	t2,20
    21d4:	0bd31463          	bne	s4,t3,227c <fail>

00000000000021d8 <test_21>:
    21d8:	00000213          	li	s2,0
    21dc:	00b00093          	li	ra,11
    21e0:	00f0b193          	sltiu	s1,ra,15
    21e4:	00120213          	addi	s2,s2,1
    21e8:	00200293          	li	s3,2
    21ec:	fe5218e3          	bne	s2,s3,21dc <test_21+0x4>
    21f0:	00100e93          	li	t3,1
    21f4:	01500e13          	li	t2,21
    21f8:	09d19263          	bne	s1,t3,227c <fail>

00000000000021fc <test_22>:
    21fc:	00000213          	li	s2,0
    2200:	01100093          	li	ra,17
    2204:	00000013          	nop
    2208:	0080b193          	sltiu	s1,ra,8
    220c:	00120213          	addi	s2,s2,1
    2210:	00200293          	li	s3,2
    2214:	fe5216e3          	bne	s2,s3,2200 <test_22+0x4>
    2218:	00000e93          	li	t3,0
    221c:	01600e13          	li	t2,22
    2220:	05d19e63          	bne	s1,t3,227c <fail>

0000000000002224 <test_23>:
    2224:	00000213          	li	s2,0
    2228:	00c00093          	li	ra,12
    222c:	00000013          	nop
    2230:	00000013          	nop
    2234:	00e0b193          	sltiu	s1,ra,14
    2238:	00120213          	addi	s2,s2,1
    223c:	00200293          	li	s3,2
    2240:	fe5214e3          	bne	s2,s3,2228 <test_23+0x4>
    2244:	00100e93          	li	t3,1
    2248:	01700e13          	li	t2,23
    224c:	03d19863          	bne	s1,t3,227c <fail>

0000000000002250 <test_24>:
    2250:	fff03093          	sltiu	ra,zero,-1
    2254:	00100e93          	li	t3,1
    2258:	01800e13          	li	t2,24
    225c:	03d09063          	bne	ra,t3,227c <fail>

0000000000002260 <test_25>:
    2260:	00ff00b7          	lui	ra,0xff0
    2264:	0ff0809b          	addiw	ra,ra,255
    2268:	fff0b013          	sltiu	zero,ra,-1
    226c:	00000e93          	li	t3,0
    2270:	01900e13          	li	t2,25
    2274:	01d01463          	bne	zero,t3,227c <fail>
    2278:	01c01e63          	bne	zero,t2,2294 <pass>

000000000000227c <fail>:
    227c:	0ff0000f          	fence
    2280:	000e0863          	beqz	t2,2290 <fail+0x14>
    2284:	001e1e13          	slli	t2,t2,0x1
    2288:	001e6e13          	ori	t2,t2,1
    228c:	51ee1073          	csrw	tohost,t2
    2290:	00000063          	b	2290 <fail+0x14>

0000000000002294 <pass>:
    2294:	0ff0000f          	fence
    2298:	51e0d073          	csrwi	tohost,1
    229c:	00000063          	b	229c <pass+0x8>
