
rv64ui-p-sh:     file format elf64-littleriscv


Disassembly of section .text:

0000000000002000 <_start>:
    2000:	50b02973          	csrr	a0,hartid
    2004:	00091063          	bnez	a0,2004 <_start+0x4>

0000000000002008 <test_2>:
    2008:	00000097          	auipc	ra,0x0
    200c:	4a808093          	addi	ra,ra,1192 # 24b0 <begin_signature>
    2010:	0aa00113          	li	s0,170
    2014:	00209023          	sh	s0,0(ra)
    2018:	00009183          	lh	s1,0(ra)
    201c:	0aa00e93          	li	t3,170
    2020:	00200e13          	li	t2,2
    2024:	45d19e63          	bne	s1,t3,2480 <fail>

0000000000002028 <test_3>:
    2028:	00000097          	auipc	ra,0x0
    202c:	48808093          	addi	ra,ra,1160 # 24b0 <begin_signature>
    2030:	ffffb137          	lui	s0,0xffffb
    2034:	a001011b          	addiw	s0,s0,-1536
    2038:	00209123          	sh	s0,2(ra)
    203c:	00209183          	lh	s1,2(ra)
    2040:	ffffbeb7          	lui	t3,0xffffb
    2044:	a00e8e9b          	addiw	t3,t3,-1536
    2048:	00300e13          	li	t2,3
    204c:	43d19a63          	bne	s1,t3,2480 <fail>

0000000000002050 <test_4>:
    2050:	00000097          	auipc	ra,0x0
    2054:	46008093          	addi	ra,ra,1120 # 24b0 <begin_signature>
    2058:	beef1137          	lui	s0,0xbeef1
    205c:	aa01011b          	addiw	s0,s0,-1376
    2060:	00209223          	sh	s0,4(ra)
    2064:	0040a183          	lw	s1,4(ra)
    2068:	beef1eb7          	lui	t3,0xbeef1
    206c:	aa0e8e9b          	addiw	t3,t3,-1376
    2070:	00400e13          	li	t2,4
    2074:	41d19663          	bne	s1,t3,2480 <fail>

0000000000002078 <test_5>:
    2078:	00000097          	auipc	ra,0x0
    207c:	43808093          	addi	ra,ra,1080 # 24b0 <begin_signature>
    2080:	ffffa137          	lui	s0,0xffffa
    2084:	00a1011b          	addiw	s0,s0,10
    2088:	00209323          	sh	s0,6(ra)
    208c:	00609183          	lh	s1,6(ra)
    2090:	ffffaeb7          	lui	t3,0xffffa
    2094:	00ae8e9b          	addiw	t3,t3,10
    2098:	00500e13          	li	t2,5
    209c:	3fd19263          	bne	s1,t3,2480 <fail>

00000000000020a0 <test_6>:
    20a0:	00000097          	auipc	ra,0x0
    20a4:	41e08093          	addi	ra,ra,1054 # 24be <tdat8>
    20a8:	0aa00113          	li	s0,170
    20ac:	fe209d23          	sh	s0,-6(ra)
    20b0:	ffa09183          	lh	s1,-6(ra)
    20b4:	0aa00e93          	li	t3,170
    20b8:	00600e13          	li	t2,6
    20bc:	3dd19263          	bne	s1,t3,2480 <fail>

00000000000020c0 <test_7>:
    20c0:	00000097          	auipc	ra,0x0
    20c4:	3fe08093          	addi	ra,ra,1022 # 24be <tdat8>
    20c8:	ffffb137          	lui	s0,0xffffb
    20cc:	a001011b          	addiw	s0,s0,-1536
    20d0:	fe209e23          	sh	s0,-4(ra)
    20d4:	ffc09183          	lh	s1,-4(ra)
    20d8:	ffffbeb7          	lui	t3,0xffffb
    20dc:	a00e8e9b          	addiw	t3,t3,-1536
    20e0:	00700e13          	li	t2,7
    20e4:	39d19e63          	bne	s1,t3,2480 <fail>

00000000000020e8 <test_8>:
    20e8:	00000097          	auipc	ra,0x0
    20ec:	3d608093          	addi	ra,ra,982 # 24be <tdat8>
    20f0:	00001137          	lui	s0,0x1
    20f4:	aa01011b          	addiw	s0,s0,-1376
    20f8:	fe209f23          	sh	s0,-2(ra)
    20fc:	ffe09183          	lh	s1,-2(ra)
    2100:	00001eb7          	lui	t3,0x1
    2104:	aa0e8e9b          	addiw	t3,t3,-1376
    2108:	00800e13          	li	t2,8
    210c:	37d19a63          	bne	s1,t3,2480 <fail>

0000000000002110 <test_9>:
    2110:	00000097          	auipc	ra,0x0
    2114:	3ae08093          	addi	ra,ra,942 # 24be <tdat8>
    2118:	ffffa137          	lui	s0,0xffffa
    211c:	00a1011b          	addiw	s0,s0,10
    2120:	00209023          	sh	s0,0(ra)
    2124:	00009183          	lh	s1,0(ra)
    2128:	ffffaeb7          	lui	t3,0xffffa
    212c:	00ae8e9b          	addiw	t3,t3,10
    2130:	00900e13          	li	t2,9
    2134:	35d19663          	bne	s1,t3,2480 <fail>

0000000000002138 <test_10>:
    2138:	00000097          	auipc	ra,0x0
    213c:	38808093          	addi	ra,ra,904 # 24c0 <tdat9>
    2140:	12345137          	lui	s0,0x12345
    2144:	6781011b          	addiw	s0,s0,1656
    2148:	fe008213          	addi	s2,ra,-32
    214c:	02221023          	sh	s0,32(s2)
    2150:	00009183          	lh	s1,0(ra)
    2154:	00005eb7          	lui	t3,0x5
    2158:	678e8e9b          	addiw	t3,t3,1656
    215c:	00a00e13          	li	t2,10
    2160:	33d19063          	bne	s1,t3,2480 <fail>

0000000000002164 <test_11>:
    2164:	00000097          	auipc	ra,0x0
    2168:	35c08093          	addi	ra,ra,860 # 24c0 <tdat9>
    216c:	00003137          	lui	s0,0x3
    2170:	0981011b          	addiw	s0,s0,152
    2174:	ffb08093          	addi	ra,ra,-5
    2178:	002093a3          	sh	s0,7(ra)
    217c:	00000217          	auipc	s2,0x0
    2180:	34620213          	addi	s2,s2,838 # 24c2 <tdat10>
    2184:	00021183          	lh	s1,0(s2)
    2188:	00003eb7          	lui	t3,0x3
    218c:	098e8e9b          	addiw	t3,t3,152
    2190:	00b00e13          	li	t2,11
    2194:	2fd19663          	bne	s1,t3,2480 <fail>

0000000000002198 <test_12>:
    2198:	00c00e13          	li	t2,12
    219c:	00000213          	li	s2,0
    21a0:	ffffd0b7          	lui	ra,0xffffd
    21a4:	cdd0809b          	addiw	ra,ra,-803
    21a8:	00000117          	auipc	s0,0x0
    21ac:	30810113          	addi	s0,s0,776 # 24b0 <begin_signature>
    21b0:	00111023          	sh	ra,0(s0)
    21b4:	00011183          	lh	s1,0(s0)
    21b8:	ffffdeb7          	lui	t3,0xffffd
    21bc:	cdde8e9b          	addiw	t3,t3,-803
    21c0:	2dd19063          	bne	s1,t3,2480 <fail>
    21c4:	00120213          	addi	s2,s2,1
    21c8:	00200293          	li	s3,2
    21cc:	fc521ae3          	bne	s2,s3,21a0 <test_12+0x8>

00000000000021d0 <test_13>:
    21d0:	00d00e13          	li	t2,13
    21d4:	00000213          	li	s2,0
    21d8:	ffffc0b7          	lui	ra,0xffffc
    21dc:	ccd0809b          	addiw	ra,ra,-819
    21e0:	00000117          	auipc	s0,0x0
    21e4:	2d010113          	addi	s0,s0,720 # 24b0 <begin_signature>
    21e8:	00000013          	nop
    21ec:	00111123          	sh	ra,2(s0)
    21f0:	00211183          	lh	s1,2(s0)
    21f4:	ffffceb7          	lui	t3,0xffffc
    21f8:	ccde8e9b          	addiw	t3,t3,-819
    21fc:	29d19263          	bne	s1,t3,2480 <fail>
    2200:	00120213          	addi	s2,s2,1
    2204:	00200293          	li	s3,2
    2208:	fc5218e3          	bne	s2,s3,21d8 <test_13+0x8>

000000000000220c <test_14>:
    220c:	00e00e13          	li	t2,14
    2210:	00000213          	li	s2,0
    2214:	ffffc0b7          	lui	ra,0xffffc
    2218:	bcc0809b          	addiw	ra,ra,-1076
    221c:	00000117          	auipc	s0,0x0
    2220:	29410113          	addi	s0,s0,660 # 24b0 <begin_signature>
    2224:	00000013          	nop
    2228:	00000013          	nop
    222c:	00111223          	sh	ra,4(s0)
    2230:	00411183          	lh	s1,4(s0)
    2234:	ffffceb7          	lui	t3,0xffffc
    2238:	bcce8e9b          	addiw	t3,t3,-1076
    223c:	25d19263          	bne	s1,t3,2480 <fail>
    2240:	00120213          	addi	s2,s2,1
    2244:	00200293          	li	s3,2
    2248:	fc5216e3          	bne	s2,s3,2214 <test_14+0x8>

000000000000224c <test_15>:
    224c:	00f00e13          	li	t2,15
    2250:	00000213          	li	s2,0
    2254:	ffffb0b7          	lui	ra,0xffffb
    2258:	bbc0809b          	addiw	ra,ra,-1092
    225c:	00000013          	nop
    2260:	00000117          	auipc	s0,0x0
    2264:	25010113          	addi	s0,s0,592 # 24b0 <begin_signature>
    2268:	00111323          	sh	ra,6(s0)
    226c:	00611183          	lh	s1,6(s0)
    2270:	ffffbeb7          	lui	t3,0xffffb
    2274:	bbce8e9b          	addiw	t3,t3,-1092
    2278:	21d19463          	bne	s1,t3,2480 <fail>
    227c:	00120213          	addi	s2,s2,1
    2280:	00200293          	li	s3,2
    2284:	fc5218e3          	bne	s2,s3,2254 <test_15+0x8>

0000000000002288 <test_16>:
    2288:	01000e13          	li	t2,16
    228c:	00000213          	li	s2,0
    2290:	ffffb0b7          	lui	ra,0xffffb
    2294:	abb0809b          	addiw	ra,ra,-1349
    2298:	00000013          	nop
    229c:	00000117          	auipc	s0,0x0
    22a0:	21410113          	addi	s0,s0,532 # 24b0 <begin_signature>
    22a4:	00000013          	nop
    22a8:	00111423          	sh	ra,8(s0)
    22ac:	00811183          	lh	s1,8(s0)
    22b0:	ffffbeb7          	lui	t3,0xffffb
    22b4:	abbe8e9b          	addiw	t3,t3,-1349
    22b8:	1dd19463          	bne	s1,t3,2480 <fail>
    22bc:	00120213          	addi	s2,s2,1
    22c0:	00200293          	li	s3,2
    22c4:	fc5216e3          	bne	s2,s3,2290 <test_16+0x8>

00000000000022c8 <test_17>:
    22c8:	01100e13          	li	t2,17
    22cc:	00000213          	li	s2,0
    22d0:	ffffe0b7          	lui	ra,0xffffe
    22d4:	aab0809b          	addiw	ra,ra,-1365
    22d8:	00000013          	nop
    22dc:	00000013          	nop
    22e0:	00000117          	auipc	s0,0x0
    22e4:	1d010113          	addi	s0,s0,464 # 24b0 <begin_signature>
    22e8:	00111523          	sh	ra,10(s0)
    22ec:	00a11183          	lh	s1,10(s0)
    22f0:	ffffeeb7          	lui	t3,0xffffe
    22f4:	aabe8e9b          	addiw	t3,t3,-1365
    22f8:	19d19463          	bne	s1,t3,2480 <fail>
    22fc:	00120213          	addi	s2,s2,1
    2300:	00200293          	li	s3,2
    2304:	fc5216e3          	bne	s2,s3,22d0 <test_17+0x8>

0000000000002308 <test_18>:
    2308:	01200e13          	li	t2,18
    230c:	00000213          	li	s2,0
    2310:	00000117          	auipc	s0,0x0
    2314:	1a010113          	addi	s0,s0,416 # 24b0 <begin_signature>
    2318:	000020b7          	lui	ra,0x2
    231c:	2330809b          	addiw	ra,ra,563
    2320:	00111023          	sh	ra,0(s0)
    2324:	00011183          	lh	s1,0(s0)
    2328:	00002eb7          	lui	t3,0x2
    232c:	233e8e9b          	addiw	t3,t3,563
    2330:	15d19863          	bne	s1,t3,2480 <fail>
    2334:	00120213          	addi	s2,s2,1
    2338:	00200293          	li	s3,2
    233c:	fc521ae3          	bne	s2,s3,2310 <test_18+0x8>

0000000000002340 <test_19>:
    2340:	01300e13          	li	t2,19
    2344:	00000213          	li	s2,0
    2348:	00000117          	auipc	s0,0x0
    234c:	16810113          	addi	s0,s0,360 # 24b0 <begin_signature>
    2350:	000010b7          	lui	ra,0x1
    2354:	2230809b          	addiw	ra,ra,547
    2358:	00000013          	nop
    235c:	00111123          	sh	ra,2(s0)
    2360:	00211183          	lh	s1,2(s0)
    2364:	00001eb7          	lui	t3,0x1
    2368:	223e8e9b          	addiw	t3,t3,547
    236c:	11d19a63          	bne	s1,t3,2480 <fail>
    2370:	00120213          	addi	s2,s2,1
    2374:	00200293          	li	s3,2
    2378:	fc5218e3          	bne	s2,s3,2348 <test_19+0x8>

000000000000237c <test_20>:
    237c:	01400e13          	li	t2,20
    2380:	00000213          	li	s2,0
    2384:	00000117          	auipc	s0,0x0
    2388:	12c10113          	addi	s0,s0,300 # 24b0 <begin_signature>
    238c:	000010b7          	lui	ra,0x1
    2390:	1220809b          	addiw	ra,ra,290
    2394:	00000013          	nop
    2398:	00000013          	nop
    239c:	00111223          	sh	ra,4(s0)
    23a0:	00411183          	lh	s1,4(s0)
    23a4:	00001eb7          	lui	t3,0x1
    23a8:	122e8e9b          	addiw	t3,t3,290
    23ac:	0dd19a63          	bne	s1,t3,2480 <fail>
    23b0:	00120213          	addi	s2,s2,1
    23b4:	00200293          	li	s3,2
    23b8:	fc5216e3          	bne	s2,s3,2384 <test_20+0x8>

00000000000023bc <test_21>:
    23bc:	01500e13          	li	t2,21
    23c0:	00000213          	li	s2,0
    23c4:	00000117          	auipc	s0,0x0
    23c8:	0ec10113          	addi	s0,s0,236 # 24b0 <begin_signature>
    23cc:	00000013          	nop
    23d0:	1120009b          	addiw	ra,zero,274
    23d4:	00111323          	sh	ra,6(s0)
    23d8:	00611183          	lh	s1,6(s0)
    23dc:	11200e93          	li	t3,274
    23e0:	0bd19063          	bne	s1,t3,2480 <fail>
    23e4:	00120213          	addi	s2,s2,1
    23e8:	00200293          	li	s3,2
    23ec:	fc521ce3          	bne	s2,s3,23c4 <test_21+0x8>

00000000000023f0 <test_22>:
    23f0:	01600e13          	li	t2,22
    23f4:	00000213          	li	s2,0
    23f8:	00000117          	auipc	s0,0x0
    23fc:	0b810113          	addi	s0,s0,184 # 24b0 <begin_signature>
    2400:	00000013          	nop
    2404:	0110009b          	addiw	ra,zero,17
    2408:	00000013          	nop
    240c:	00111423          	sh	ra,8(s0)
    2410:	00811183          	lh	s1,8(s0)
    2414:	01100e93          	li	t3,17
    2418:	07d19463          	bne	s1,t3,2480 <fail>
    241c:	00120213          	addi	s2,s2,1
    2420:	00200293          	li	s3,2
    2424:	fc521ae3          	bne	s2,s3,23f8 <test_22+0x8>

0000000000002428 <test_23>:
    2428:	01700e13          	li	t2,23
    242c:	00000213          	li	s2,0
    2430:	00000117          	auipc	s0,0x0
    2434:	08010113          	addi	s0,s0,128 # 24b0 <begin_signature>
    2438:	00000013          	nop
    243c:	00000013          	nop
    2440:	000030b7          	lui	ra,0x3
    2444:	0010809b          	addiw	ra,ra,1
    2448:	00111523          	sh	ra,10(s0)
    244c:	00a11183          	lh	s1,10(s0)
    2450:	00003eb7          	lui	t3,0x3
    2454:	001e8e9b          	addiw	t3,t3,1
    2458:	03d19463          	bne	s1,t3,2480 <fail>
    245c:	00120213          	addi	s2,s2,1
    2460:	00200293          	li	s3,2
    2464:	fc5216e3          	bne	s2,s3,2430 <test_23+0x8>
    2468:	0000c937          	lui	a0,0xc
    246c:	eef9091b          	addiw	a0,a0,-273
    2470:	00000997          	auipc	a1,0x0
    2474:	04098993          	addi	a1,a1,64 # 24b0 <begin_signature>
    2478:	01299323          	sh	a0,6(a1)
    247c:	01c01e63          	bne	zero,t2,2498 <pass>

0000000000002480 <fail>:
    2480:	0ff0000f          	fence
    2484:	000e0863          	beqz	t2,2494 <fail+0x14>
    2488:	001e1e13          	slli	t2,t2,0x1
    248c:	001e6e13          	ori	t2,t2,1
    2490:	51ee1073          	csrw	tohost,t2
    2494:	00000063          	b	2494 <fail+0x14>

0000000000002498 <pass>:
    2498:	0ff0000f          	fence
    249c:	51e0d073          	csrwi	tohost,1
    24a0:	00000063          	b	24a0 <pass+0x8>
    24a4:	00000013          	nop
    24a8:	00000013          	nop
    24ac:	00000013          	nop
