
rv64ui-p-vec-ori:     file format elf64-littleriscv


Disassembly of section .text:

0000000000002000 <_start>:
    2000:	50b02973          	csrr	a0,hartid
    2004:	00091063          	bnez	a0,2004 <_start+0x4>
    2008:	10000913          	li	a0,256
    200c:	50a92073          	csrs	status,a0
    2010:	50a029f3          	csrr	a1,status
    2014:	01397933          	and	a0,a0,a1
    2018:	00091863          	bnez	a0,2028 <test_2>
    201c:	0ff0000f          	fence
    2020:	51e0d073          	csrwi	tohost,1
    2024:	00000063          	b	2024 <_start+0x24>

0000000000002028 <test_2>:
    2028:	0040200b          	vsetcfg	4,0
    202c:	00001ab7          	lui	a3,0x1
    2030:	800a8a9b          	addiw	a3,a3,-2048
    2034:	000aea8b          	vsetvl	a3,a3
    2038:	00002937          	lui	a0,0x2
    203c:	06192c2b          	vf	120(a0) # 2078 <vtcode2>
    2040:	00000b17          	auipc	a4,0x0
    2044:	540b0b13          	addi	a4,a4,1344 # 2580 <begin_signature>
    2048:	060b21fb          	vsd	vx3,a4
    204c:	0ff0000f          	fence
    2050:	f0f00993          	li	a1,-241
    2054:	00000a13          	li	a2,0
    2058:	00200e13          	li	t2,2

000000000000205c <test_loop2>:
    205c:	000b3903          	ld	a0,0(a4)
    2060:	01390463          	beq	a0,a1,2068 <skip2>
    2064:	4f80006f          	j	255c <fail>

0000000000002068 <skip2>:
    2068:	008b0b13          	addi	a4,a4,8
    206c:	001a0a13          	addi	a2,a2,1
    2070:	ff5a16e3          	bne	a2,a3,205c <test_loop2>
    2074:	0140006f          	j	2088 <next2>

0000000000002078 <vtcode2>:
    2078:	ff0100b7          	lui	ra,0xff010
    207c:	f000809b          	addiw	ra,ra,-256
    2080:	f0f0e193          	ori	s1,ra,-241
    2084:	00005077          	stop

0000000000002088 <next2>:
    2088:	0040200b          	vsetcfg	4,0
    208c:	00001ab7          	lui	a3,0x1
    2090:	800a8a9b          	addiw	a3,a3,-2048
    2094:	000aea8b          	vsetvl	a3,a3
    2098:	00002937          	lui	a0,0x2
    209c:	0c192e2b          	vf	220(a0) # 20dc <vtcode3>
    20a0:	00000b17          	auipc	a4,0x0
    20a4:	4e0b0b13          	addi	a4,a4,1248 # 2580 <begin_signature>
    20a8:	060b21fb          	vsd	vx3,a4
    20ac:	0ff0000f          	fence
    20b0:	0ff019b7          	lui	a1,0xff01
    20b4:	ff09899b          	addiw	a1,a1,-16
    20b8:	00000a13          	li	a2,0
    20bc:	00300e13          	li	t2,3

00000000000020c0 <test_loop3>:
    20c0:	000b3903          	ld	a0,0(a4)
    20c4:	01390463          	beq	a0,a1,20cc <skip3>
    20c8:	4940006f          	j	255c <fail>

00000000000020cc <skip3>:
    20cc:	008b0b13          	addi	a4,a4,8
    20d0:	001a0a13          	addi	a2,a2,1
    20d4:	ff5a16e3          	bne	a2,a3,20c0 <test_loop3>
    20d8:	0140006f          	j	20ec <next3>

00000000000020dc <vtcode3>:
    20dc:	0ff010b7          	lui	ra,0xff01
    20e0:	ff00809b          	addiw	ra,ra,-16
    20e4:	0f00e193          	ori	s1,ra,240
    20e8:	00005077          	stop

00000000000020ec <next3>:
    20ec:	0040200b          	vsetcfg	4,0
    20f0:	00001ab7          	lui	a3,0x1
    20f4:	800a8a9b          	addiw	a3,a3,-2048
    20f8:	000aea8b          	vsetvl	a3,a3
    20fc:	00002937          	lui	a0,0x2
    2100:	1419202b          	vf	320(a0) # 2140 <vtcode4>
    2104:	00000b17          	auipc	a4,0x0
    2108:	47cb0b13          	addi	a4,a4,1148 # 2580 <begin_signature>
    210c:	060b21fb          	vsd	vx3,a4
    2110:	0ff0000f          	fence
    2114:	00ff09b7          	lui	a1,0xff0
    2118:	7ff9899b          	addiw	a1,a1,2047
    211c:	00000a13          	li	a2,0
    2120:	00400e13          	li	t2,4

0000000000002124 <test_loop4>:
    2124:	000b3903          	ld	a0,0(a4)
    2128:	01390463          	beq	a0,a1,2130 <skip4>
    212c:	4300006f          	j	255c <fail>

0000000000002130 <skip4>:
    2130:	008b0b13          	addi	a4,a4,8
    2134:	001a0a13          	addi	a2,a2,1
    2138:	ff5a16e3          	bne	a2,a3,2124 <test_loop4>
    213c:	0140006f          	j	2150 <next4>

0000000000002140 <vtcode4>:
    2140:	00ff00b7          	lui	ra,0xff0
    2144:	0ff0809b          	addiw	ra,ra,255
    2148:	70f0e193          	ori	s1,ra,1807
    214c:	00005077          	stop

0000000000002150 <next4>:
    2150:	0040200b          	vsetcfg	4,0
    2154:	00001ab7          	lui	a3,0x1
    2158:	800a8a9b          	addiw	a3,a3,-2048
    215c:	000aea8b          	vsetvl	a3,a3
    2160:	00002937          	lui	a0,0x2
    2164:	1a19222b          	vf	420(a0) # 21a4 <vtcode5>
    2168:	00000b17          	auipc	a4,0x0
    216c:	418b0b13          	addi	a4,a4,1048 # 2580 <begin_signature>
    2170:	060b21fb          	vsd	vx3,a4
    2174:	0ff0000f          	fence
    2178:	f00ff9b7          	lui	a1,0xf00ff
    217c:	0ff9899b          	addiw	a1,a1,255
    2180:	00000a13          	li	a2,0
    2184:	00500e13          	li	t2,5

0000000000002188 <test_loop5>:
    2188:	000b3903          	ld	a0,0(a4)
    218c:	01390463          	beq	a0,a1,2194 <skip5>
    2190:	3cc0006f          	j	255c <fail>

0000000000002194 <skip5>:
    2194:	008b0b13          	addi	a4,a4,8
    2198:	001a0a13          	addi	a2,a2,1
    219c:	ff5a16e3          	bne	a2,a3,2188 <test_loop5>
    21a0:	0140006f          	j	21b4 <next5>

00000000000021a4 <vtcode5>:
    21a4:	f00ff0b7          	lui	ra,0xf00ff
    21a8:	00f0809b          	addiw	ra,ra,15
    21ac:	0f00e193          	ori	s1,ra,240
    21b0:	00005077          	stop

00000000000021b4 <next5>:
    21b4:	0020200b          	vsetcfg	2,0
    21b8:	00001ab7          	lui	a3,0x1
    21bc:	800a8a9b          	addiw	a3,a3,-2048
    21c0:	000aea8b          	vsetvl	a3,a3
    21c4:	00002937          	lui	a0,0x2
    21c8:	2019282b          	vf	528(a0) # 2210 <vtcode6>
    21cc:	00000b17          	auipc	a4,0x0
    21d0:	3b4b0b13          	addi	a4,a4,948 # 2580 <begin_signature>
    21d4:	060b20fb          	vsd	vx1,a4
    21d8:	0ff0000f          	fence
    21dc:	001fe9b7          	lui	a1,0x1fe
    21e0:	01f9899b          	addiw	a1,a1,31
    21e4:	00b99993          	slli	a1,a1,0xb
    21e8:	7f098993          	addi	a1,a1,2032 # 1fe7f0 <_end+0x1f8270>
    21ec:	00000a13          	li	a2,0
    21f0:	00600e13          	li	t2,6

00000000000021f4 <test_loop6>:
    21f4:	000b3903          	ld	a0,0(a4)
    21f8:	01390463          	beq	a0,a1,2200 <skip6>
    21fc:	3600006f          	j	255c <fail>

0000000000002200 <skip6>:
    2200:	008b0b13          	addi	a4,a4,8
    2204:	001a0a13          	addi	a2,a2,1
    2208:	ff5a16e3          	bne	a2,a3,21f4 <test_loop6>
    220c:	01c0006f          	j	2228 <next6>

0000000000002210 <vtcode6>:
    2210:	001fe0b7          	lui	ra,0x1fe
    2214:	01f0809b          	addiw	ra,ra,31
    2218:	00b09093          	slli	ra,ra,0xb
    221c:	70008093          	addi	ra,ra,1792 # 1fe700 <_end+0x1f8180>
    2220:	0f00e093          	ori	ra,ra,240
    2224:	00005077          	stop

0000000000002228 <next6>:
    2228:	0050200b          	vsetcfg	5,0
    222c:	00001ab7          	lui	a3,0x1
    2230:	800a8a9b          	addiw	a3,a3,-2048
    2234:	000aea8b          	vsetvl	a3,a3
    2238:	00002937          	lui	a0,0x2
    223c:	26192e2b          	vf	636(a0) # 227c <vtcode7>
    2240:	00000b17          	auipc	a4,0x0
    2244:	340b0b13          	addi	a4,a4,832 # 2580 <begin_signature>
    2248:	060b227b          	vsd	vx4,a4
    224c:	0ff0000f          	fence
    2250:	0ff019b7          	lui	a1,0xff01
    2254:	ff09899b          	addiw	a1,a1,-16
    2258:	00000a13          	li	a2,0
    225c:	00700e13          	li	t2,7

0000000000002260 <test_loop7>:
    2260:	000b3903          	ld	a0,0(a4)
    2264:	01390463          	beq	a0,a1,226c <skip7>
    2268:	2f40006f          	j	255c <fail>

000000000000226c <skip7>:
    226c:	008b0b13          	addi	a4,a4,8
    2270:	001a0a13          	addi	a2,a2,1
    2274:	ff5a16e3          	bne	a2,a3,2260 <test_loop7>
    2278:	0180006f          	j	2290 <next7>

000000000000227c <vtcode7>:
    227c:	0ff010b7          	lui	ra,0xff01
    2280:	ff00809b          	addiw	ra,ra,-16
    2284:	0f00e193          	ori	s1,ra,240
    2288:	00018213          	mv	s2,s1
    228c:	00005077          	stop

0000000000002290 <next7>:
    2290:	0050200b          	vsetcfg	5,0
    2294:	00001ab7          	lui	a3,0x1
    2298:	800a8a9b          	addiw	a3,a3,-2048
    229c:	000aea8b          	vsetvl	a3,a3
    22a0:	00002937          	lui	a0,0x2
    22a4:	2e19222b          	vf	740(a0) # 22e4 <vtcode8>
    22a8:	00000b17          	auipc	a4,0x0
    22ac:	2d8b0b13          	addi	a4,a4,728 # 2580 <begin_signature>
    22b0:	060b227b          	vsd	vx4,a4
    22b4:	0ff0000f          	fence
    22b8:	00ff09b7          	lui	a1,0xff0
    22bc:	7ff9899b          	addiw	a1,a1,2047
    22c0:	00000a13          	li	a2,0
    22c4:	00800e13          	li	t2,8

00000000000022c8 <test_loop8>:
    22c8:	000b3903          	ld	a0,0(a4)
    22cc:	01390463          	beq	a0,a1,22d4 <skip8>
    22d0:	28c0006f          	j	255c <fail>

00000000000022d4 <skip8>:
    22d4:	008b0b13          	addi	a4,a4,8
    22d8:	001a0a13          	addi	a2,a2,1
    22dc:	ff5a16e3          	bne	a2,a3,22c8 <test_loop8>
    22e0:	01c0006f          	j	22fc <next8>

00000000000022e4 <vtcode8>:
    22e4:	00ff00b7          	lui	ra,0xff0
    22e8:	0ff0809b          	addiw	ra,ra,255
    22ec:	70f0e193          	ori	s1,ra,1807
    22f0:	00000013          	nop
    22f4:	00018213          	mv	s2,s1
    22f8:	00005077          	stop

00000000000022fc <next8>:
    22fc:	0050200b          	vsetcfg	5,0
    2300:	00001ab7          	lui	a3,0x1
    2304:	800a8a9b          	addiw	a3,a3,-2048
    2308:	000aea8b          	vsetvl	a3,a3
    230c:	00002937          	lui	a0,0x2
    2310:	3419282b          	vf	848(a0) # 2350 <vtcode9>
    2314:	00000b17          	auipc	a4,0x0
    2318:	26cb0b13          	addi	a4,a4,620 # 2580 <begin_signature>
    231c:	060b227b          	vsd	vx4,a4
    2320:	0ff0000f          	fence
    2324:	f00ff9b7          	lui	a1,0xf00ff
    2328:	0ff9899b          	addiw	a1,a1,255
    232c:	00000a13          	li	a2,0
    2330:	00900e13          	li	t2,9

0000000000002334 <test_loop9>:
    2334:	000b3903          	ld	a0,0(a4)
    2338:	01390463          	beq	a0,a1,2340 <skip9>
    233c:	2200006f          	j	255c <fail>

0000000000002340 <skip9>:
    2340:	008b0b13          	addi	a4,a4,8
    2344:	001a0a13          	addi	a2,a2,1
    2348:	ff5a16e3          	bne	a2,a3,2334 <test_loop9>
    234c:	0200006f          	j	236c <next9>

0000000000002350 <vtcode9>:
    2350:	f00ff0b7          	lui	ra,0xf00ff
    2354:	00f0809b          	addiw	ra,ra,15
    2358:	0f00e193          	ori	s1,ra,240
    235c:	00000013          	nop
    2360:	00000013          	nop
    2364:	00018213          	mv	s2,s1
    2368:	00005077          	stop

000000000000236c <next9>:
    236c:	0040200b          	vsetcfg	4,0
    2370:	00001ab7          	lui	a3,0x1
    2374:	800a8a9b          	addiw	a3,a3,-2048
    2378:	000aea8b          	vsetvl	a3,a3
    237c:	00002937          	lui	a0,0x2
    2380:	3c19202b          	vf	960(a0) # 23c0 <vtcode10>
    2384:	00000b17          	auipc	a4,0x0
    2388:	1fcb0b13          	addi	a4,a4,508 # 2580 <begin_signature>
    238c:	060b21fb          	vsd	vx3,a4
    2390:	0ff0000f          	fence
    2394:	0ff019b7          	lui	a1,0xff01
    2398:	ff09899b          	addiw	a1,a1,-16
    239c:	00000a13          	li	a2,0
    23a0:	00a00e13          	li	t2,10

00000000000023a4 <test_loop10>:
    23a4:	000b3903          	ld	a0,0(a4)
    23a8:	01390463          	beq	a0,a1,23b0 <skip10>
    23ac:	1b00006f          	j	255c <fail>

00000000000023b0 <skip10>:
    23b0:	008b0b13          	addi	a4,a4,8
    23b4:	001a0a13          	addi	a2,a2,1
    23b8:	ff5a16e3          	bne	a2,a3,23a4 <test_loop10>
    23bc:	0140006f          	j	23d0 <next10>

00000000000023c0 <vtcode10>:
    23c0:	0ff010b7          	lui	ra,0xff01
    23c4:	ff00809b          	addiw	ra,ra,-16
    23c8:	0f00e193          	ori	s1,ra,240
    23cc:	00005077          	stop

00000000000023d0 <next10>:
    23d0:	0040200b          	vsetcfg	4,0
    23d4:	00001ab7          	lui	a3,0x1
    23d8:	800a8a9b          	addiw	a3,a3,-2048
    23dc:	000aea8b          	vsetvl	a3,a3
    23e0:	00002937          	lui	a0,0x2
    23e4:	4219202b          	vf	1056(a0) # 2420 <vtcode11>
    23e8:	00000b17          	auipc	a4,0x0
    23ec:	198b0b13          	addi	a4,a4,408 # 2580 <begin_signature>
    23f0:	060b21fb          	vsd	vx3,a4
    23f4:	0ff0000f          	fence
    23f8:	fff00993          	li	a1,-1
    23fc:	00000a13          	li	a2,0
    2400:	00b00e13          	li	t2,11

0000000000002404 <test_loop11>:
    2404:	000b3903          	ld	a0,0(a4)
    2408:	01390463          	beq	a0,a1,2410 <skip11>
    240c:	1500006f          	j	255c <fail>

0000000000002410 <skip11>:
    2410:	008b0b13          	addi	a4,a4,8
    2414:	001a0a13          	addi	a2,a2,1
    2418:	ff5a16e3          	bne	a2,a3,2404 <test_loop11>
    241c:	0180006f          	j	2434 <next11>

0000000000002420 <vtcode11>:
    2420:	00ff00b7          	lui	ra,0xff0
    2424:	0ff0809b          	addiw	ra,ra,255
    2428:	00000013          	nop
    242c:	f0f0e193          	ori	s1,ra,-241
    2430:	00005077          	stop

0000000000002434 <next11>:
    2434:	0040200b          	vsetcfg	4,0
    2438:	00001ab7          	lui	a3,0x1
    243c:	800a8a9b          	addiw	a3,a3,-2048
    2440:	000aea8b          	vsetvl	a3,a3
    2444:	00002937          	lui	a0,0x2
    2448:	4819242b          	vf	1160(a0) # 2488 <vtcode12>
    244c:	00000b17          	auipc	a4,0x0
    2450:	134b0b13          	addi	a4,a4,308 # 2580 <begin_signature>
    2454:	060b21fb          	vsd	vx3,a4
    2458:	0ff0000f          	fence
    245c:	f00ff9b7          	lui	a1,0xf00ff
    2460:	0ff9899b          	addiw	a1,a1,255
    2464:	00000a13          	li	a2,0
    2468:	00c00e13          	li	t2,12

000000000000246c <test_loop12>:
    246c:	000b3903          	ld	a0,0(a4)
    2470:	01390463          	beq	a0,a1,2478 <skip12>
    2474:	0e80006f          	j	255c <fail>

0000000000002478 <skip12>:
    2478:	008b0b13          	addi	a4,a4,8
    247c:	001a0a13          	addi	a2,a2,1
    2480:	ff5a16e3          	bne	a2,a3,246c <test_loop12>
    2484:	01c0006f          	j	24a0 <next12>

0000000000002488 <vtcode12>:
    2488:	f00ff0b7          	lui	ra,0xf00ff
    248c:	00f0809b          	addiw	ra,ra,15
    2490:	00000013          	nop
    2494:	00000013          	nop
    2498:	0f00e193          	ori	s1,ra,240
    249c:	00005077          	stop

00000000000024a0 <next12>:
    24a0:	0020200b          	vsetcfg	2,0
    24a4:	00001ab7          	lui	a3,0x1
    24a8:	800a8a9b          	addiw	a3,a3,-2048
    24ac:	000aea8b          	vsetvl	a3,a3
    24b0:	00002937          	lui	a0,0x2
    24b4:	4e19282b          	vf	1264(a0) # 24f0 <vtcode13>
    24b8:	00000b17          	auipc	a4,0x0
    24bc:	0c8b0b13          	addi	a4,a4,200 # 2580 <begin_signature>
    24c0:	060b20fb          	vsd	vx1,a4
    24c4:	0ff0000f          	fence
    24c8:	0f000993          	li	a1,240
    24cc:	00000a13          	li	a2,0
    24d0:	00d00e13          	li	t2,13

00000000000024d4 <test_loop13>:
    24d4:	000b3903          	ld	a0,0(a4)
    24d8:	01390463          	beq	a0,a1,24e0 <skip13>
    24dc:	0800006f          	j	255c <fail>

00000000000024e0 <skip13>:
    24e0:	008b0b13          	addi	a4,a4,8
    24e4:	001a0a13          	addi	a2,a2,1
    24e8:	ff5a16e3          	bne	a2,a3,24d4 <test_loop13>
    24ec:	00c0006f          	j	24f8 <next13>

00000000000024f0 <vtcode13>:
    24f0:	0f006093          	ori	ra,zero,240
    24f4:	00005077          	stop

00000000000024f8 <next13>:
    24f8:	0020200b          	vsetcfg	2,0
    24fc:	00001ab7          	lui	a3,0x1
    2500:	800a8a9b          	addiw	a3,a3,-2048
    2504:	000aea8b          	vsetvl	a3,a3
    2508:	00002937          	lui	a0,0x2
    250c:	5419242b          	vf	1352(a0) # 2548 <vtcode14>
    2510:	00000b17          	auipc	a4,0x0
    2514:	070b0b13          	addi	a4,a4,112 # 2580 <begin_signature>
    2518:	060b207b          	vsd	vx0,a4
    251c:	0ff0000f          	fence
    2520:	00000993          	li	a1,0
    2524:	00000a13          	li	a2,0
    2528:	00e00e13          	li	t2,14

000000000000252c <test_loop14>:
    252c:	000b3903          	ld	a0,0(a4)
    2530:	01390463          	beq	a0,a1,2538 <skip14>
    2534:	0280006f          	j	255c <fail>

0000000000002538 <skip14>:
    2538:	008b0b13          	addi	a4,a4,8
    253c:	001a0a13          	addi	a2,a2,1
    2540:	ff5a16e3          	bne	a2,a3,252c <test_loop14>
    2544:	0140006f          	j	2558 <next14>

0000000000002548 <vtcode14>:
    2548:	00ff00b7          	lui	ra,0xff0
    254c:	0ff0809b          	addiw	ra,ra,255
    2550:	70f0e013          	ori	zero,ra,1807
    2554:	00005077          	stop

0000000000002558 <next14>:
    2558:	01c01e63          	bne	zero,t2,2574 <pass>

000000000000255c <fail>:
    255c:	0ff0000f          	fence
    2560:	000e0863          	beqz	t2,2570 <fail+0x14>
    2564:	001e1e13          	slli	t2,t2,0x1
    2568:	001e6e13          	ori	t2,t2,1
    256c:	51ee1073          	csrw	tohost,t2
    2570:	00000063          	b	2570 <fail+0x14>

0000000000002574 <pass>:
    2574:	0ff0000f          	fence
    2578:	51e0d073          	csrwi	tohost,1
    257c:	00000063          	b	257c <pass+0x8>
