
rv64ui-p-srliw:     file format elf64-littleriscv


Disassembly of section .text:

0000000000002000 <_start>:
    2000:	50b02973          	csrr	a0,hartid
    2004:	00091063          	bnez	a0,2004 <_start+0x4>

0000000000002008 <test_2>:
    2008:	800000b7          	lui	ra,0x80000
    200c:	0000d19b          	srliw	s1,ra,0x0
    2010:	80000eb7          	lui	t3,0x80000
    2014:	00200e13          	li	t2,2
    2018:	29d19863          	bne	s1,t3,22a8 <fail>

000000000000201c <test_3>:
    201c:	800000b7          	lui	ra,0x80000
    2020:	0010d19b          	srliw	s1,ra,0x1
    2024:	40000eb7          	lui	t3,0x40000
    2028:	00300e13          	li	t2,3
    202c:	27d19e63          	bne	s1,t3,22a8 <fail>

0000000000002030 <test_4>:
    2030:	800000b7          	lui	ra,0x80000
    2034:	0070d19b          	srliw	s1,ra,0x7
    2038:	01000eb7          	lui	t3,0x1000
    203c:	00400e13          	li	t2,4
    2040:	27d19463          	bne	s1,t3,22a8 <fail>

0000000000002044 <test_5>:
    2044:	800000b7          	lui	ra,0x80000
    2048:	00e0d19b          	srliw	s1,ra,0xe
    204c:	00020eb7          	lui	t3,0x20
    2050:	00500e13          	li	t2,5
    2054:	25d19a63          	bne	s1,t3,22a8 <fail>

0000000000002058 <test_6>:
    2058:	800000b7          	lui	ra,0x80000
    205c:	0010809b          	addiw	ra,ra,1
    2060:	01f0d19b          	srliw	s1,ra,0x1f
    2064:	00100e93          	li	t3,1
    2068:	00600e13          	li	t2,6
    206c:	23d19e63          	bne	s1,t3,22a8 <fail>

0000000000002070 <test_7>:
    2070:	fff00093          	li	ra,-1
    2074:	0000d19b          	srliw	s1,ra,0x0
    2078:	fff00e93          	li	t3,-1
    207c:	00700e13          	li	t2,7
    2080:	23d19463          	bne	s1,t3,22a8 <fail>

0000000000002084 <test_8>:
    2084:	fff00093          	li	ra,-1
    2088:	0010d19b          	srliw	s1,ra,0x1
    208c:	80000eb7          	lui	t3,0x80000
    2090:	fffe8e9b          	addiw	t3,t3,-1
    2094:	00800e13          	li	t2,8
    2098:	21d19863          	bne	s1,t3,22a8 <fail>

000000000000209c <test_9>:
    209c:	fff00093          	li	ra,-1
    20a0:	0070d19b          	srliw	s1,ra,0x7
    20a4:	02000eb7          	lui	t3,0x2000
    20a8:	fffe8e9b          	addiw	t3,t3,-1
    20ac:	00900e13          	li	t2,9
    20b0:	1fd19c63          	bne	s1,t3,22a8 <fail>

00000000000020b4 <test_10>:
    20b4:	fff00093          	li	ra,-1
    20b8:	00e0d19b          	srliw	s1,ra,0xe
    20bc:	00040eb7          	lui	t3,0x40
    20c0:	fffe8e9b          	addiw	t3,t3,-1
    20c4:	00a00e13          	li	t2,10
    20c8:	1fd19063          	bne	s1,t3,22a8 <fail>

00000000000020cc <test_11>:
    20cc:	fff00093          	li	ra,-1
    20d0:	01f0d19b          	srliw	s1,ra,0x1f
    20d4:	00100e93          	li	t3,1
    20d8:	00b00e13          	li	t2,11
    20dc:	1dd19663          	bne	s1,t3,22a8 <fail>

00000000000020e0 <test_12>:
    20e0:	212120b7          	lui	ra,0x21212
    20e4:	1210809b          	addiw	ra,ra,289
    20e8:	0000d19b          	srliw	s1,ra,0x0
    20ec:	21212eb7          	lui	t3,0x21212
    20f0:	121e8e9b          	addiw	t3,t3,289
    20f4:	00c00e13          	li	t2,12
    20f8:	1bd19863          	bne	s1,t3,22a8 <fail>

00000000000020fc <test_13>:
    20fc:	212120b7          	lui	ra,0x21212
    2100:	1210809b          	addiw	ra,ra,289
    2104:	0010d19b          	srliw	s1,ra,0x1
    2108:	10909eb7          	lui	t3,0x10909
    210c:	090e8e9b          	addiw	t3,t3,144
    2110:	00d00e13          	li	t2,13
    2114:	19d19a63          	bne	s1,t3,22a8 <fail>

0000000000002118 <test_14>:
    2118:	212120b7          	lui	ra,0x21212
    211c:	1210809b          	addiw	ra,ra,289
    2120:	0070d19b          	srliw	s1,ra,0x7
    2124:	00424eb7          	lui	t3,0x424
    2128:	242e8e9b          	addiw	t3,t3,578
    212c:	00e00e13          	li	t2,14
    2130:	17d19c63          	bne	s1,t3,22a8 <fail>

0000000000002134 <test_15>:
    2134:	212120b7          	lui	ra,0x21212
    2138:	1210809b          	addiw	ra,ra,289
    213c:	00e0d19b          	srliw	s1,ra,0xe
    2140:	00008eb7          	lui	t3,0x8
    2144:	484e8e9b          	addiw	t3,t3,1156
    2148:	00f00e13          	li	t2,15
    214c:	15d19e63          	bne	s1,t3,22a8 <fail>

0000000000002150 <test_16>:
    2150:	212120b7          	lui	ra,0x21212
    2154:	1210809b          	addiw	ra,ra,289
    2158:	01f0d19b          	srliw	s1,ra,0x1f
    215c:	00000e93          	li	t3,0
    2160:	01000e13          	li	t2,16
    2164:	15d19263          	bne	s1,t3,22a8 <fail>

0000000000002168 <test_17>:
    2168:	800000b7          	lui	ra,0x80000
    216c:	0070d09b          	srliw	ra,ra,0x7
    2170:	01000eb7          	lui	t3,0x1000
    2174:	01100e13          	li	t2,17
    2178:	13d09863          	bne	ra,t3,22a8 <fail>

000000000000217c <test_18>:
    217c:	00000213          	li	s2,0
    2180:	800000b7          	lui	ra,0x80000
    2184:	0070d19b          	srliw	s1,ra,0x7
    2188:	00018313          	mv	s4,s1
    218c:	00120213          	addi	s2,s2,1
    2190:	00200293          	li	s3,2
    2194:	fe5216e3          	bne	s2,s3,2180 <test_18+0x4>
    2198:	01000eb7          	lui	t3,0x1000
    219c:	01200e13          	li	t2,18
    21a0:	11d31463          	bne	s4,t3,22a8 <fail>

00000000000021a4 <test_19>:
    21a4:	00000213          	li	s2,0
    21a8:	800000b7          	lui	ra,0x80000
    21ac:	00e0d19b          	srliw	s1,ra,0xe
    21b0:	00000013          	nop
    21b4:	00018313          	mv	s4,s1
    21b8:	00120213          	addi	s2,s2,1
    21bc:	00200293          	li	s3,2
    21c0:	fe5214e3          	bne	s2,s3,21a8 <test_19+0x4>
    21c4:	00020eb7          	lui	t3,0x20
    21c8:	01300e13          	li	t2,19
    21cc:	0dd31e63          	bne	s4,t3,22a8 <fail>

00000000000021d0 <test_20>:
    21d0:	00000213          	li	s2,0
    21d4:	800000b7          	lui	ra,0x80000
    21d8:	0010809b          	addiw	ra,ra,1
    21dc:	01f0d19b          	srliw	s1,ra,0x1f
    21e0:	00000013          	nop
    21e4:	00000013          	nop
    21e8:	00018313          	mv	s4,s1
    21ec:	00120213          	addi	s2,s2,1
    21f0:	00200293          	li	s3,2
    21f4:	fe5210e3          	bne	s2,s3,21d4 <test_20+0x4>
    21f8:	00100e93          	li	t3,1
    21fc:	01400e13          	li	t2,20
    2200:	0bd31463          	bne	s4,t3,22a8 <fail>

0000000000002204 <test_21>:
    2204:	00000213          	li	s2,0
    2208:	800000b7          	lui	ra,0x80000
    220c:	0070d19b          	srliw	s1,ra,0x7
    2210:	00120213          	addi	s2,s2,1
    2214:	00200293          	li	s3,2
    2218:	fe5218e3          	bne	s2,s3,2208 <test_21+0x4>
    221c:	01000eb7          	lui	t3,0x1000
    2220:	01500e13          	li	t2,21
    2224:	09d19263          	bne	s1,t3,22a8 <fail>

0000000000002228 <test_22>:
    2228:	00000213          	li	s2,0
    222c:	800000b7          	lui	ra,0x80000
    2230:	00000013          	nop
    2234:	00e0d19b          	srliw	s1,ra,0xe
    2238:	00120213          	addi	s2,s2,1
    223c:	00200293          	li	s3,2
    2240:	fe5216e3          	bne	s2,s3,222c <test_22+0x4>
    2244:	00020eb7          	lui	t3,0x20
    2248:	01600e13          	li	t2,22
    224c:	05d19e63          	bne	s1,t3,22a8 <fail>

0000000000002250 <test_23>:
    2250:	00000213          	li	s2,0
    2254:	800000b7          	lui	ra,0x80000
    2258:	0010809b          	addiw	ra,ra,1
    225c:	00000013          	nop
    2260:	00000013          	nop
    2264:	01f0d19b          	srliw	s1,ra,0x1f
    2268:	00120213          	addi	s2,s2,1
    226c:	00200293          	li	s3,2
    2270:	fe5212e3          	bne	s2,s3,2254 <test_23+0x4>
    2274:	00100e93          	li	t3,1
    2278:	01700e13          	li	t2,23
    227c:	03d19663          	bne	s1,t3,22a8 <fail>

0000000000002280 <test_24>:
    2280:	01f0509b          	srliw	ra,zero,0x1f
    2284:	00000e93          	li	t3,0
    2288:	01800e13          	li	t2,24
    228c:	01d09e63          	bne	ra,t3,22a8 <fail>

0000000000002290 <test_25>:
    2290:	01f00093          	li	ra,31
    2294:	01c0d01b          	srliw	zero,ra,0x1c
    2298:	00000e93          	li	t3,0
    229c:	01900e13          	li	t2,25
    22a0:	01d01463          	bne	zero,t3,22a8 <fail>
    22a4:	01c01e63          	bne	zero,t2,22c0 <pass>

00000000000022a8 <fail>:
    22a8:	0ff0000f          	fence
    22ac:	000e0863          	beqz	t2,22bc <fail+0x14>
    22b0:	001e1e13          	slli	t2,t2,0x1
    22b4:	001e6e13          	ori	t2,t2,1
    22b8:	51ee1073          	csrw	tohost,t2
    22bc:	00000063          	b	22bc <fail+0x14>

00000000000022c0 <pass>:
    22c0:	0ff0000f          	fence
    22c4:	51e0d073          	csrwi	tohost,1
    22c8:	00000063          	b	22c8 <pass+0x8>
    22cc:	00000013          	nop
