
rv64ui-p-vec-srliw:     file format elf64-littleriscv


Disassembly of section .text:

0000000000002000 <_start>:
    2000:	50b02973          	csrr	a0,hartid
    2004:	00091063          	bnez	a0,2004 <_start+0x4>
    2008:	10000913          	li	a0,256
    200c:	50a92073          	csrs	status,a0
    2010:	50a029f3          	csrr	a1,status
    2014:	01397933          	and	a0,a0,a1
    2018:	00091863          	bnez	a0,2028 <test_2>
    201c:	0ff0000f          	fence
    2020:	51e0d073          	csrwi	tohost,1
    2024:	00000063          	b	2024 <_start+0x24>

0000000000002028 <test_2>:
    2028:	0040200b          	vsetcfg	4,0
    202c:	00001ab7          	lui	a3,0x1
    2030:	800a8a9b          	addiw	a3,a3,-2048
    2034:	000aea8b          	vsetvl	a3,a3
    2038:	00002937          	lui	a0,0x2
    203c:	06192c2b          	vf	120(a0) # 2078 <vtcode2>
    2040:	00001b17          	auipc	a4,0x1
    2044:	910b0b13          	addi	a4,a4,-1776 # 2950 <begin_signature>
    2048:	060b21fb          	vsd	vx3,a4
    204c:	0ff0000f          	fence
    2050:	800009b7          	lui	a1,0x80000
    2054:	00000a13          	li	a2,0
    2058:	00200e13          	li	t2,2

000000000000205c <test_loop2>:
    205c:	000b3903          	ld	a0,0(a4)
    2060:	01390463          	beq	a0,a1,2068 <skip2>
    2064:	0c50006f          	j	2928 <fail>

0000000000002068 <skip2>:
    2068:	008b0b13          	addi	a4,a4,8
    206c:	001a0a13          	addi	a2,a2,1
    2070:	ff5a16e3          	bne	a2,a3,205c <test_loop2>
    2074:	0100006f          	j	2084 <next2>

0000000000002078 <vtcode2>:
    2078:	800000b7          	lui	ra,0x80000
    207c:	0000d19b          	srliw	s1,ra,0x0
    2080:	00005077          	stop

0000000000002084 <next2>:
    2084:	0040200b          	vsetcfg	4,0
    2088:	00001ab7          	lui	a3,0x1
    208c:	800a8a9b          	addiw	a3,a3,-2048
    2090:	000aea8b          	vsetvl	a3,a3
    2094:	00002937          	lui	a0,0x2
    2098:	0c192a2b          	vf	212(a0) # 20d4 <vtcode3>
    209c:	00001b17          	auipc	a4,0x1
    20a0:	8b4b0b13          	addi	a4,a4,-1868 # 2950 <begin_signature>
    20a4:	060b21fb          	vsd	vx3,a4
    20a8:	0ff0000f          	fence
    20ac:	400009b7          	lui	a1,0x40000
    20b0:	00000a13          	li	a2,0
    20b4:	00300e13          	li	t2,3

00000000000020b8 <test_loop3>:
    20b8:	000b3903          	ld	a0,0(a4)
    20bc:	01390463          	beq	a0,a1,20c4 <skip3>
    20c0:	0690006f          	j	2928 <fail>

00000000000020c4 <skip3>:
    20c4:	008b0b13          	addi	a4,a4,8
    20c8:	001a0a13          	addi	a2,a2,1
    20cc:	ff5a16e3          	bne	a2,a3,20b8 <test_loop3>
    20d0:	0100006f          	j	20e0 <next3>

00000000000020d4 <vtcode3>:
    20d4:	800000b7          	lui	ra,0x80000
    20d8:	0010d19b          	srliw	s1,ra,0x1
    20dc:	00005077          	stop

00000000000020e0 <next3>:
    20e0:	0040200b          	vsetcfg	4,0
    20e4:	00001ab7          	lui	a3,0x1
    20e8:	800a8a9b          	addiw	a3,a3,-2048
    20ec:	000aea8b          	vsetvl	a3,a3
    20f0:	00002937          	lui	a0,0x2
    20f4:	1219282b          	vf	304(a0) # 2130 <vtcode4>
    20f8:	00001b17          	auipc	a4,0x1
    20fc:	858b0b13          	addi	a4,a4,-1960 # 2950 <begin_signature>
    2100:	060b21fb          	vsd	vx3,a4
    2104:	0ff0000f          	fence
    2108:	010009b7          	lui	a1,0x1000
    210c:	00000a13          	li	a2,0
    2110:	00400e13          	li	t2,4

0000000000002114 <test_loop4>:
    2114:	000b3903          	ld	a0,0(a4)
    2118:	01390463          	beq	a0,a1,2120 <skip4>
    211c:	00d0006f          	j	2928 <fail>

0000000000002120 <skip4>:
    2120:	008b0b13          	addi	a4,a4,8
    2124:	001a0a13          	addi	a2,a2,1
    2128:	ff5a16e3          	bne	a2,a3,2114 <test_loop4>
    212c:	0100006f          	j	213c <next4>

0000000000002130 <vtcode4>:
    2130:	800000b7          	lui	ra,0x80000
    2134:	0070d19b          	srliw	s1,ra,0x7
    2138:	00005077          	stop

000000000000213c <next4>:
    213c:	0040200b          	vsetcfg	4,0
    2140:	00001ab7          	lui	a3,0x1
    2144:	800a8a9b          	addiw	a3,a3,-2048
    2148:	000aea8b          	vsetvl	a3,a3
    214c:	00002937          	lui	a0,0x2
    2150:	1819262b          	vf	396(a0) # 218c <vtcode5>
    2154:	00000b17          	auipc	a4,0x0
    2158:	7fcb0b13          	addi	a4,a4,2044 # 2950 <begin_signature>
    215c:	060b21fb          	vsd	vx3,a4
    2160:	0ff0000f          	fence
    2164:	000209b7          	lui	a1,0x20
    2168:	00000a13          	li	a2,0
    216c:	00500e13          	li	t2,5

0000000000002170 <test_loop5>:
    2170:	000b3903          	ld	a0,0(a4)
    2174:	01390463          	beq	a0,a1,217c <skip5>
    2178:	7b00006f          	j	2928 <fail>

000000000000217c <skip5>:
    217c:	008b0b13          	addi	a4,a4,8
    2180:	001a0a13          	addi	a2,a2,1
    2184:	ff5a16e3          	bne	a2,a3,2170 <test_loop5>
    2188:	0100006f          	j	2198 <next5>

000000000000218c <vtcode5>:
    218c:	800000b7          	lui	ra,0x80000
    2190:	00e0d19b          	srliw	s1,ra,0xe
    2194:	00005077          	stop

0000000000002198 <next5>:
    2198:	0040200b          	vsetcfg	4,0
    219c:	00001ab7          	lui	a3,0x1
    21a0:	800a8a9b          	addiw	a3,a3,-2048
    21a4:	000aea8b          	vsetvl	a3,a3
    21a8:	00002937          	lui	a0,0x2
    21ac:	1e19242b          	vf	488(a0) # 21e8 <vtcode6>
    21b0:	00000b17          	auipc	a4,0x0
    21b4:	7a0b0b13          	addi	a4,a4,1952 # 2950 <begin_signature>
    21b8:	060b21fb          	vsd	vx3,a4
    21bc:	0ff0000f          	fence
    21c0:	00100993          	li	a1,1
    21c4:	00000a13          	li	a2,0
    21c8:	00600e13          	li	t2,6

00000000000021cc <test_loop6>:
    21cc:	000b3903          	ld	a0,0(a4)
    21d0:	01390463          	beq	a0,a1,21d8 <skip6>
    21d4:	7540006f          	j	2928 <fail>

00000000000021d8 <skip6>:
    21d8:	008b0b13          	addi	a4,a4,8
    21dc:	001a0a13          	addi	a2,a2,1
    21e0:	ff5a16e3          	bne	a2,a3,21cc <test_loop6>
    21e4:	0140006f          	j	21f8 <next6>

00000000000021e8 <vtcode6>:
    21e8:	800000b7          	lui	ra,0x80000
    21ec:	0010809b          	addiw	ra,ra,1
    21f0:	01f0d19b          	srliw	s1,ra,0x1f
    21f4:	00005077          	stop

00000000000021f8 <next6>:
    21f8:	0040200b          	vsetcfg	4,0
    21fc:	00001ab7          	lui	a3,0x1
    2200:	800a8a9b          	addiw	a3,a3,-2048
    2204:	000aea8b          	vsetvl	a3,a3
    2208:	00002937          	lui	a0,0x2
    220c:	2419242b          	vf	584(a0) # 2248 <vtcode7>
    2210:	00000b17          	auipc	a4,0x0
    2214:	740b0b13          	addi	a4,a4,1856 # 2950 <begin_signature>
    2218:	060b21fb          	vsd	vx3,a4
    221c:	0ff0000f          	fence
    2220:	fff00993          	li	a1,-1
    2224:	00000a13          	li	a2,0
    2228:	00700e13          	li	t2,7

000000000000222c <test_loop7>:
    222c:	000b3903          	ld	a0,0(a4)
    2230:	01390463          	beq	a0,a1,2238 <skip7>
    2234:	6f40006f          	j	2928 <fail>

0000000000002238 <skip7>:
    2238:	008b0b13          	addi	a4,a4,8
    223c:	001a0a13          	addi	a2,a2,1
    2240:	ff5a16e3          	bne	a2,a3,222c <test_loop7>
    2244:	0100006f          	j	2254 <next7>

0000000000002248 <vtcode7>:
    2248:	fff00093          	li	ra,-1
    224c:	0000d19b          	srliw	s1,ra,0x0
    2250:	00005077          	stop

0000000000002254 <next7>:
    2254:	0040200b          	vsetcfg	4,0
    2258:	00001ab7          	lui	a3,0x1
    225c:	800a8a9b          	addiw	a3,a3,-2048
    2260:	000aea8b          	vsetvl	a3,a3
    2264:	00002937          	lui	a0,0x2
    2268:	2a19242b          	vf	680(a0) # 22a8 <vtcode8>
    226c:	00000b17          	auipc	a4,0x0
    2270:	6e4b0b13          	addi	a4,a4,1764 # 2950 <begin_signature>
    2274:	060b21fb          	vsd	vx3,a4
    2278:	0ff0000f          	fence
    227c:	800009b7          	lui	a1,0x80000
    2280:	fff9899b          	addiw	a1,a1,-1
    2284:	00000a13          	li	a2,0
    2288:	00800e13          	li	t2,8

000000000000228c <test_loop8>:
    228c:	000b3903          	ld	a0,0(a4)
    2290:	01390463          	beq	a0,a1,2298 <skip8>
    2294:	6940006f          	j	2928 <fail>

0000000000002298 <skip8>:
    2298:	008b0b13          	addi	a4,a4,8
    229c:	001a0a13          	addi	a2,a2,1
    22a0:	ff5a16e3          	bne	a2,a3,228c <test_loop8>
    22a4:	0100006f          	j	22b4 <next8>

00000000000022a8 <vtcode8>:
    22a8:	fff00093          	li	ra,-1
    22ac:	0010d19b          	srliw	s1,ra,0x1
    22b0:	00005077          	stop

00000000000022b4 <next8>:
    22b4:	0040200b          	vsetcfg	4,0
    22b8:	00001ab7          	lui	a3,0x1
    22bc:	800a8a9b          	addiw	a3,a3,-2048
    22c0:	000aea8b          	vsetvl	a3,a3
    22c4:	00002937          	lui	a0,0x2
    22c8:	3019242b          	vf	776(a0) # 2308 <vtcode9>
    22cc:	00000b17          	auipc	a4,0x0
    22d0:	684b0b13          	addi	a4,a4,1668 # 2950 <begin_signature>
    22d4:	060b21fb          	vsd	vx3,a4
    22d8:	0ff0000f          	fence
    22dc:	020009b7          	lui	a1,0x2000
    22e0:	fff9899b          	addiw	a1,a1,-1
    22e4:	00000a13          	li	a2,0
    22e8:	00900e13          	li	t2,9

00000000000022ec <test_loop9>:
    22ec:	000b3903          	ld	a0,0(a4)
    22f0:	01390463          	beq	a0,a1,22f8 <skip9>
    22f4:	6340006f          	j	2928 <fail>

00000000000022f8 <skip9>:
    22f8:	008b0b13          	addi	a4,a4,8
    22fc:	001a0a13          	addi	a2,a2,1
    2300:	ff5a16e3          	bne	a2,a3,22ec <test_loop9>
    2304:	0100006f          	j	2314 <next9>

0000000000002308 <vtcode9>:
    2308:	fff00093          	li	ra,-1
    230c:	0070d19b          	srliw	s1,ra,0x7
    2310:	00005077          	stop

0000000000002314 <next9>:
    2314:	0040200b          	vsetcfg	4,0
    2318:	00001ab7          	lui	a3,0x1
    231c:	800a8a9b          	addiw	a3,a3,-2048
    2320:	000aea8b          	vsetvl	a3,a3
    2324:	00002937          	lui	a0,0x2
    2328:	3619242b          	vf	872(a0) # 2368 <vtcode10>
    232c:	00000b17          	auipc	a4,0x0
    2330:	624b0b13          	addi	a4,a4,1572 # 2950 <begin_signature>
    2334:	060b21fb          	vsd	vx3,a4
    2338:	0ff0000f          	fence
    233c:	000409b7          	lui	a1,0x40
    2340:	fff9899b          	addiw	a1,a1,-1
    2344:	00000a13          	li	a2,0
    2348:	00a00e13          	li	t2,10

000000000000234c <test_loop10>:
    234c:	000b3903          	ld	a0,0(a4)
    2350:	01390463          	beq	a0,a1,2358 <skip10>
    2354:	5d40006f          	j	2928 <fail>

0000000000002358 <skip10>:
    2358:	008b0b13          	addi	a4,a4,8
    235c:	001a0a13          	addi	a2,a2,1
    2360:	ff5a16e3          	bne	a2,a3,234c <test_loop10>
    2364:	0100006f          	j	2374 <next10>

0000000000002368 <vtcode10>:
    2368:	fff00093          	li	ra,-1
    236c:	00e0d19b          	srliw	s1,ra,0xe
    2370:	00005077          	stop

0000000000002374 <next10>:
    2374:	0040200b          	vsetcfg	4,0
    2378:	00001ab7          	lui	a3,0x1
    237c:	800a8a9b          	addiw	a3,a3,-2048
    2380:	000aea8b          	vsetvl	a3,a3
    2384:	00002937          	lui	a0,0x2
    2388:	3c19222b          	vf	964(a0) # 23c4 <vtcode11>
    238c:	00000b17          	auipc	a4,0x0
    2390:	5c4b0b13          	addi	a4,a4,1476 # 2950 <begin_signature>
    2394:	060b21fb          	vsd	vx3,a4
    2398:	0ff0000f          	fence
    239c:	00100993          	li	a1,1
    23a0:	00000a13          	li	a2,0
    23a4:	00b00e13          	li	t2,11

00000000000023a8 <test_loop11>:
    23a8:	000b3903          	ld	a0,0(a4)
    23ac:	01390463          	beq	a0,a1,23b4 <skip11>
    23b0:	5780006f          	j	2928 <fail>

00000000000023b4 <skip11>:
    23b4:	008b0b13          	addi	a4,a4,8
    23b8:	001a0a13          	addi	a2,a2,1
    23bc:	ff5a16e3          	bne	a2,a3,23a8 <test_loop11>
    23c0:	0100006f          	j	23d0 <next11>

00000000000023c4 <vtcode11>:
    23c4:	fff00093          	li	ra,-1
    23c8:	01f0d19b          	srliw	s1,ra,0x1f
    23cc:	00005077          	stop

00000000000023d0 <next11>:
    23d0:	0040200b          	vsetcfg	4,0
    23d4:	00001ab7          	lui	a3,0x1
    23d8:	800a8a9b          	addiw	a3,a3,-2048
    23dc:	000aea8b          	vsetvl	a3,a3
    23e0:	00002937          	lui	a0,0x2
    23e4:	4219222b          	vf	1060(a0) # 2424 <vtcode12>
    23e8:	00000b17          	auipc	a4,0x0
    23ec:	568b0b13          	addi	a4,a4,1384 # 2950 <begin_signature>
    23f0:	060b21fb          	vsd	vx3,a4
    23f4:	0ff0000f          	fence
    23f8:	212129b7          	lui	a1,0x21212
    23fc:	1219899b          	addiw	a1,a1,289
    2400:	00000a13          	li	a2,0
    2404:	00c00e13          	li	t2,12

0000000000002408 <test_loop12>:
    2408:	000b3903          	ld	a0,0(a4)
    240c:	01390463          	beq	a0,a1,2414 <skip12>
    2410:	5180006f          	j	2928 <fail>

0000000000002414 <skip12>:
    2414:	008b0b13          	addi	a4,a4,8
    2418:	001a0a13          	addi	a2,a2,1
    241c:	ff5a16e3          	bne	a2,a3,2408 <test_loop12>
    2420:	0140006f          	j	2434 <next12>

0000000000002424 <vtcode12>:
    2424:	212120b7          	lui	ra,0x21212
    2428:	1210809b          	addiw	ra,ra,289
    242c:	0000d19b          	srliw	s1,ra,0x0
    2430:	00005077          	stop

0000000000002434 <next12>:
    2434:	0040200b          	vsetcfg	4,0
    2438:	00001ab7          	lui	a3,0x1
    243c:	800a8a9b          	addiw	a3,a3,-2048
    2440:	000aea8b          	vsetvl	a3,a3
    2444:	00002937          	lui	a0,0x2
    2448:	4819242b          	vf	1160(a0) # 2488 <vtcode13>
    244c:	00000b17          	auipc	a4,0x0
    2450:	504b0b13          	addi	a4,a4,1284 # 2950 <begin_signature>
    2454:	060b21fb          	vsd	vx3,a4
    2458:	0ff0000f          	fence
    245c:	109099b7          	lui	a1,0x10909
    2460:	0909899b          	addiw	a1,a1,144
    2464:	00000a13          	li	a2,0
    2468:	00d00e13          	li	t2,13

000000000000246c <test_loop13>:
    246c:	000b3903          	ld	a0,0(a4)
    2470:	01390463          	beq	a0,a1,2478 <skip13>
    2474:	4b40006f          	j	2928 <fail>

0000000000002478 <skip13>:
    2478:	008b0b13          	addi	a4,a4,8
    247c:	001a0a13          	addi	a2,a2,1
    2480:	ff5a16e3          	bne	a2,a3,246c <test_loop13>
    2484:	0140006f          	j	2498 <next13>

0000000000002488 <vtcode13>:
    2488:	212120b7          	lui	ra,0x21212
    248c:	1210809b          	addiw	ra,ra,289
    2490:	0010d19b          	srliw	s1,ra,0x1
    2494:	00005077          	stop

0000000000002498 <next13>:
    2498:	0040200b          	vsetcfg	4,0
    249c:	00001ab7          	lui	a3,0x1
    24a0:	800a8a9b          	addiw	a3,a3,-2048
    24a4:	000aea8b          	vsetvl	a3,a3
    24a8:	00002937          	lui	a0,0x2
    24ac:	4e19262b          	vf	1260(a0) # 24ec <vtcode14>
    24b0:	00000b17          	auipc	a4,0x0
    24b4:	4a0b0b13          	addi	a4,a4,1184 # 2950 <begin_signature>
    24b8:	060b21fb          	vsd	vx3,a4
    24bc:	0ff0000f          	fence
    24c0:	004249b7          	lui	a1,0x424
    24c4:	2429899b          	addiw	a1,a1,578
    24c8:	00000a13          	li	a2,0
    24cc:	00e00e13          	li	t2,14

00000000000024d0 <test_loop14>:
    24d0:	000b3903          	ld	a0,0(a4)
    24d4:	01390463          	beq	a0,a1,24dc <skip14>
    24d8:	4500006f          	j	2928 <fail>

00000000000024dc <skip14>:
    24dc:	008b0b13          	addi	a4,a4,8
    24e0:	001a0a13          	addi	a2,a2,1
    24e4:	ff5a16e3          	bne	a2,a3,24d0 <test_loop14>
    24e8:	0140006f          	j	24fc <next14>

00000000000024ec <vtcode14>:
    24ec:	212120b7          	lui	ra,0x21212
    24f0:	1210809b          	addiw	ra,ra,289
    24f4:	0070d19b          	srliw	s1,ra,0x7
    24f8:	00005077          	stop

00000000000024fc <next14>:
    24fc:	0040200b          	vsetcfg	4,0
    2500:	00001ab7          	lui	a3,0x1
    2504:	800a8a9b          	addiw	a3,a3,-2048
    2508:	000aea8b          	vsetvl	a3,a3
    250c:	00002937          	lui	a0,0x2
    2510:	5419282b          	vf	1360(a0) # 2550 <vtcode15>
    2514:	00000b17          	auipc	a4,0x0
    2518:	43cb0b13          	addi	a4,a4,1084 # 2950 <begin_signature>
    251c:	060b21fb          	vsd	vx3,a4
    2520:	0ff0000f          	fence
    2524:	000089b7          	lui	a1,0x8
    2528:	4849899b          	addiw	a1,a1,1156
    252c:	00000a13          	li	a2,0
    2530:	00f00e13          	li	t2,15

0000000000002534 <test_loop15>:
    2534:	000b3903          	ld	a0,0(a4)
    2538:	01390463          	beq	a0,a1,2540 <skip15>
    253c:	3ec0006f          	j	2928 <fail>

0000000000002540 <skip15>:
    2540:	008b0b13          	addi	a4,a4,8
    2544:	001a0a13          	addi	a2,a2,1
    2548:	ff5a16e3          	bne	a2,a3,2534 <test_loop15>
    254c:	0140006f          	j	2560 <next15>

0000000000002550 <vtcode15>:
    2550:	212120b7          	lui	ra,0x21212
    2554:	1210809b          	addiw	ra,ra,289
    2558:	00e0d19b          	srliw	s1,ra,0xe
    255c:	00005077          	stop

0000000000002560 <next15>:
    2560:	0040200b          	vsetcfg	4,0
    2564:	00001ab7          	lui	a3,0x1
    2568:	800a8a9b          	addiw	a3,a3,-2048
    256c:	000aea8b          	vsetvl	a3,a3
    2570:	00002937          	lui	a0,0x2
    2574:	5a19282b          	vf	1456(a0) # 25b0 <vtcode16>
    2578:	00000b17          	auipc	a4,0x0
    257c:	3d8b0b13          	addi	a4,a4,984 # 2950 <begin_signature>
    2580:	060b21fb          	vsd	vx3,a4
    2584:	0ff0000f          	fence
    2588:	00000993          	li	a1,0
    258c:	00000a13          	li	a2,0
    2590:	01000e13          	li	t2,16

0000000000002594 <test_loop16>:
    2594:	000b3903          	ld	a0,0(a4)
    2598:	01390463          	beq	a0,a1,25a0 <skip16>
    259c:	38c0006f          	j	2928 <fail>

00000000000025a0 <skip16>:
    25a0:	008b0b13          	addi	a4,a4,8
    25a4:	001a0a13          	addi	a2,a2,1
    25a8:	ff5a16e3          	bne	a2,a3,2594 <test_loop16>
    25ac:	0140006f          	j	25c0 <next16>

00000000000025b0 <vtcode16>:
    25b0:	212120b7          	lui	ra,0x21212
    25b4:	1210809b          	addiw	ra,ra,289
    25b8:	01f0d19b          	srliw	s1,ra,0x1f
    25bc:	00005077          	stop

00000000000025c0 <next16>:
    25c0:	0020200b          	vsetcfg	2,0
    25c4:	00001ab7          	lui	a3,0x1
    25c8:	800a8a9b          	addiw	a3,a3,-2048
    25cc:	000aea8b          	vsetvl	a3,a3
    25d0:	00002937          	lui	a0,0x2
    25d4:	6019282b          	vf	1552(a0) # 2610 <vtcode17>
    25d8:	00000b17          	auipc	a4,0x0
    25dc:	378b0b13          	addi	a4,a4,888 # 2950 <begin_signature>
    25e0:	060b20fb          	vsd	vx1,a4
    25e4:	0ff0000f          	fence
    25e8:	010009b7          	lui	a1,0x1000
    25ec:	00000a13          	li	a2,0
    25f0:	01100e13          	li	t2,17

00000000000025f4 <test_loop17>:
    25f4:	000b3903          	ld	a0,0(a4)
    25f8:	01390463          	beq	a0,a1,2600 <skip17>
    25fc:	32c0006f          	j	2928 <fail>

0000000000002600 <skip17>:
    2600:	008b0b13          	addi	a4,a4,8
    2604:	001a0a13          	addi	a2,a2,1
    2608:	ff5a16e3          	bne	a2,a3,25f4 <test_loop17>
    260c:	0100006f          	j	261c <next17>

0000000000002610 <vtcode17>:
    2610:	800000b7          	lui	ra,0x80000
    2614:	0070d09b          	srliw	ra,ra,0x7
    2618:	00005077          	stop

000000000000261c <next17>:
    261c:	0050200b          	vsetcfg	5,0
    2620:	00001ab7          	lui	a3,0x1
    2624:	800a8a9b          	addiw	a3,a3,-2048
    2628:	000aea8b          	vsetvl	a3,a3
    262c:	00002937          	lui	a0,0x2
    2630:	6619262b          	vf	1644(a0) # 266c <vtcode18>
    2634:	00000b17          	auipc	a4,0x0
    2638:	31cb0b13          	addi	a4,a4,796 # 2950 <begin_signature>
    263c:	060b227b          	vsd	vx4,a4
    2640:	0ff0000f          	fence
    2644:	010009b7          	lui	a1,0x1000
    2648:	00000a13          	li	a2,0
    264c:	01200e13          	li	t2,18

0000000000002650 <test_loop18>:
    2650:	000b3903          	ld	a0,0(a4)
    2654:	01390463          	beq	a0,a1,265c <skip18>
    2658:	2d00006f          	j	2928 <fail>

000000000000265c <skip18>:
    265c:	008b0b13          	addi	a4,a4,8
    2660:	001a0a13          	addi	a2,a2,1
    2664:	ff5a16e3          	bne	a2,a3,2650 <test_loop18>
    2668:	0140006f          	j	267c <next18>

000000000000266c <vtcode18>:
    266c:	800000b7          	lui	ra,0x80000
    2670:	0070d19b          	srliw	s1,ra,0x7
    2674:	00018213          	mv	s2,s1
    2678:	00005077          	stop

000000000000267c <next18>:
    267c:	0050200b          	vsetcfg	5,0
    2680:	00001ab7          	lui	a3,0x1
    2684:	800a8a9b          	addiw	a3,a3,-2048
    2688:	000aea8b          	vsetvl	a3,a3
    268c:	00002937          	lui	a0,0x2
    2690:	6c19262b          	vf	1740(a0) # 26cc <vtcode19>
    2694:	00000b17          	auipc	a4,0x0
    2698:	2bcb0b13          	addi	a4,a4,700 # 2950 <begin_signature>
    269c:	060b227b          	vsd	vx4,a4
    26a0:	0ff0000f          	fence
    26a4:	000209b7          	lui	a1,0x20
    26a8:	00000a13          	li	a2,0
    26ac:	01300e13          	li	t2,19

00000000000026b0 <test_loop19>:
    26b0:	000b3903          	ld	a0,0(a4)
    26b4:	01390463          	beq	a0,a1,26bc <skip19>
    26b8:	2700006f          	j	2928 <fail>

00000000000026bc <skip19>:
    26bc:	008b0b13          	addi	a4,a4,8
    26c0:	001a0a13          	addi	a2,a2,1
    26c4:	ff5a16e3          	bne	a2,a3,26b0 <test_loop19>
    26c8:	0180006f          	j	26e0 <next19>

00000000000026cc <vtcode19>:
    26cc:	800000b7          	lui	ra,0x80000
    26d0:	00e0d19b          	srliw	s1,ra,0xe
    26d4:	00000013          	nop
    26d8:	00018213          	mv	s2,s1
    26dc:	00005077          	stop

00000000000026e0 <next19>:
    26e0:	0050200b          	vsetcfg	5,0
    26e4:	00001ab7          	lui	a3,0x1
    26e8:	800a8a9b          	addiw	a3,a3,-2048
    26ec:	000aea8b          	vsetvl	a3,a3
    26f0:	00002937          	lui	a0,0x2
    26f4:	7219282b          	vf	1840(a0) # 2730 <vtcode20>
    26f8:	00000b17          	auipc	a4,0x0
    26fc:	258b0b13          	addi	a4,a4,600 # 2950 <begin_signature>
    2700:	060b227b          	vsd	vx4,a4
    2704:	0ff0000f          	fence
    2708:	00100993          	li	a1,1
    270c:	00000a13          	li	a2,0
    2710:	01400e13          	li	t2,20

0000000000002714 <test_loop20>:
    2714:	000b3903          	ld	a0,0(a4)
    2718:	01390463          	beq	a0,a1,2720 <skip20>
    271c:	20c0006f          	j	2928 <fail>

0000000000002720 <skip20>:
    2720:	008b0b13          	addi	a4,a4,8
    2724:	001a0a13          	addi	a2,a2,1
    2728:	ff5a16e3          	bne	a2,a3,2714 <test_loop20>
    272c:	0200006f          	j	274c <next20>

0000000000002730 <vtcode20>:
    2730:	800000b7          	lui	ra,0x80000
    2734:	0010809b          	addiw	ra,ra,1
    2738:	01f0d19b          	srliw	s1,ra,0x1f
    273c:	00000013          	nop
    2740:	00000013          	nop
    2744:	00018213          	mv	s2,s1
    2748:	00005077          	stop

000000000000274c <next20>:
    274c:	0040200b          	vsetcfg	4,0
    2750:	00001ab7          	lui	a3,0x1
    2754:	800a8a9b          	addiw	a3,a3,-2048
    2758:	000aea8b          	vsetvl	a3,a3
    275c:	00002937          	lui	a0,0x2
    2760:	78192e2b          	vf	1948(a0) # 279c <vtcode21>
    2764:	00000b17          	auipc	a4,0x0
    2768:	1ecb0b13          	addi	a4,a4,492 # 2950 <begin_signature>
    276c:	060b21fb          	vsd	vx3,a4
    2770:	0ff0000f          	fence
    2774:	010009b7          	lui	a1,0x1000
    2778:	00000a13          	li	a2,0
    277c:	01500e13          	li	t2,21

0000000000002780 <test_loop21>:
    2780:	000b3903          	ld	a0,0(a4)
    2784:	01390463          	beq	a0,a1,278c <skip21>
    2788:	1a00006f          	j	2928 <fail>

000000000000278c <skip21>:
    278c:	008b0b13          	addi	a4,a4,8
    2790:	001a0a13          	addi	a2,a2,1
    2794:	ff5a16e3          	bne	a2,a3,2780 <test_loop21>
    2798:	0100006f          	j	27a8 <next21>

000000000000279c <vtcode21>:
    279c:	800000b7          	lui	ra,0x80000
    27a0:	0070d19b          	srliw	s1,ra,0x7
    27a4:	00005077          	stop

00000000000027a8 <next21>:
    27a8:	0040200b          	vsetcfg	4,0
    27ac:	00001ab7          	lui	a3,0x1
    27b0:	800a8a9b          	addiw	a3,a3,-2048
    27b4:	000aea8b          	vsetvl	a3,a3
    27b8:	00002937          	lui	a0,0x2
    27bc:	7e192c2b          	vf	2040(a0) # 27f8 <vtcode22>
    27c0:	00000b17          	auipc	a4,0x0
    27c4:	190b0b13          	addi	a4,a4,400 # 2950 <begin_signature>
    27c8:	060b21fb          	vsd	vx3,a4
    27cc:	0ff0000f          	fence
    27d0:	000209b7          	lui	a1,0x20
    27d4:	00000a13          	li	a2,0
    27d8:	01600e13          	li	t2,22

00000000000027dc <test_loop22>:
    27dc:	000b3903          	ld	a0,0(a4)
    27e0:	01390463          	beq	a0,a1,27e8 <skip22>
    27e4:	1440006f          	j	2928 <fail>

00000000000027e8 <skip22>:
    27e8:	008b0b13          	addi	a4,a4,8
    27ec:	001a0a13          	addi	a2,a2,1
    27f0:	ff5a16e3          	bne	a2,a3,27dc <test_loop22>
    27f4:	0140006f          	j	2808 <next22>

00000000000027f8 <vtcode22>:
    27f8:	800000b7          	lui	ra,0x80000
    27fc:	00000013          	nop
    2800:	00e0d19b          	srliw	s1,ra,0xe
    2804:	00005077          	stop

0000000000002808 <next22>:
    2808:	0040200b          	vsetcfg	4,0
    280c:	00001ab7          	lui	a3,0x1
    2810:	800a8a9b          	addiw	a3,a3,-2048
    2814:	000aea8b          	vsetvl	a3,a3
    2818:	00003937          	lui	a0,0x3
    281c:	84192c2b          	vf	-1960(a0) # 2858 <vtcode23>
    2820:	00000b17          	auipc	a4,0x0
    2824:	130b0b13          	addi	a4,a4,304 # 2950 <begin_signature>
    2828:	060b21fb          	vsd	vx3,a4
    282c:	0ff0000f          	fence
    2830:	00100993          	li	a1,1
    2834:	00000a13          	li	a2,0
    2838:	01700e13          	li	t2,23

000000000000283c <test_loop23>:
    283c:	000b3903          	ld	a0,0(a4)
    2840:	01390463          	beq	a0,a1,2848 <skip23>
    2844:	0e40006f          	j	2928 <fail>

0000000000002848 <skip23>:
    2848:	008b0b13          	addi	a4,a4,8
    284c:	001a0a13          	addi	a2,a2,1
    2850:	ff5a16e3          	bne	a2,a3,283c <test_loop23>
    2854:	01c0006f          	j	2870 <next23>

0000000000002858 <vtcode23>:
    2858:	800000b7          	lui	ra,0x80000
    285c:	0010809b          	addiw	ra,ra,1
    2860:	00000013          	nop
    2864:	00000013          	nop
    2868:	01f0d19b          	srliw	s1,ra,0x1f
    286c:	00005077          	stop

0000000000002870 <next23>:
    2870:	0020200b          	vsetcfg	2,0
    2874:	00001ab7          	lui	a3,0x1
    2878:	800a8a9b          	addiw	a3,a3,-2048
    287c:	000aea8b          	vsetvl	a3,a3
    2880:	00003937          	lui	a0,0x3
    2884:	8c19202b          	vf	-1856(a0) # 28c0 <vtcode24>
    2888:	00000b17          	auipc	a4,0x0
    288c:	0c8b0b13          	addi	a4,a4,200 # 2950 <begin_signature>
    2890:	060b20fb          	vsd	vx1,a4
    2894:	0ff0000f          	fence
    2898:	00000993          	li	a1,0
    289c:	00000a13          	li	a2,0
    28a0:	01800e13          	li	t2,24

00000000000028a4 <test_loop24>:
    28a4:	000b3903          	ld	a0,0(a4)
    28a8:	01390463          	beq	a0,a1,28b0 <skip24>
    28ac:	07c0006f          	j	2928 <fail>

00000000000028b0 <skip24>:
    28b0:	008b0b13          	addi	a4,a4,8
    28b4:	001a0a13          	addi	a2,a2,1
    28b8:	ff5a16e3          	bne	a2,a3,28a4 <test_loop24>
    28bc:	00c0006f          	j	28c8 <next24>

00000000000028c0 <vtcode24>:
    28c0:	01f0509b          	srliw	ra,zero,0x1f
    28c4:	00005077          	stop

00000000000028c8 <next24>:
    28c8:	0020200b          	vsetcfg	2,0
    28cc:	00001ab7          	lui	a3,0x1
    28d0:	800a8a9b          	addiw	a3,a3,-2048
    28d4:	000aea8b          	vsetvl	a3,a3
    28d8:	00003937          	lui	a0,0x3
    28dc:	90192c2b          	vf	-1768(a0) # 2918 <vtcode25>
    28e0:	00000b17          	auipc	a4,0x0
    28e4:	070b0b13          	addi	a4,a4,112 # 2950 <begin_signature>
    28e8:	060b207b          	vsd	vx0,a4
    28ec:	0ff0000f          	fence
    28f0:	00000993          	li	a1,0
    28f4:	00000a13          	li	a2,0
    28f8:	01900e13          	li	t2,25

00000000000028fc <test_loop25>:
    28fc:	000b3903          	ld	a0,0(a4)
    2900:	01390463          	beq	a0,a1,2908 <skip25>
    2904:	0240006f          	j	2928 <fail>

0000000000002908 <skip25>:
    2908:	008b0b13          	addi	a4,a4,8
    290c:	001a0a13          	addi	a2,a2,1
    2910:	ff5a16e3          	bne	a2,a3,28fc <test_loop25>
    2914:	0100006f          	j	2924 <next25>

0000000000002918 <vtcode25>:
    2918:	01f00093          	li	ra,31
    291c:	01c0d01b          	srliw	zero,ra,0x1c
    2920:	00005077          	stop

0000000000002924 <next25>:
    2924:	01c01e63          	bne	zero,t2,2940 <pass>

0000000000002928 <fail>:
    2928:	0ff0000f          	fence
    292c:	000e0863          	beqz	t2,293c <fail+0x14>
    2930:	001e1e13          	slli	t2,t2,0x1
    2934:	001e6e13          	ori	t2,t2,1
    2938:	51ee1073          	csrw	tohost,t2
    293c:	00000063          	b	293c <fail+0x14>

0000000000002940 <pass>:
    2940:	0ff0000f          	fence
    2944:	51e0d073          	csrwi	tohost,1
    2948:	00000063          	b	2948 <pass+0x8>
    294c:	00000013          	nop
