
rv64ui-p-sltu:     file format elf64-littleriscv


Disassembly of section .text:

0000000000002000 <_start>:
    2000:	50b02973          	csrr	a0,hartid
    2004:	00091063          	bnez	a0,2004 <_start+0x4>

0000000000002008 <test_2>:
    2008:	00000093          	li	ra,0
    200c:	00000113          	li	s0,0
    2010:	0020b1b3          	sltu	s1,ra,s0
    2014:	00000e93          	li	t3,0
    2018:	00200e13          	li	t2,2
    201c:	51d19463          	bne	s1,t3,2524 <fail>

0000000000002020 <test_3>:
    2020:	00100093          	li	ra,1
    2024:	00100113          	li	s0,1
    2028:	0020b1b3          	sltu	s1,ra,s0
    202c:	00000e93          	li	t3,0
    2030:	00300e13          	li	t2,3
    2034:	4fd19863          	bne	s1,t3,2524 <fail>

0000000000002038 <test_4>:
    2038:	00300093          	li	ra,3
    203c:	00700113          	li	s0,7
    2040:	0020b1b3          	sltu	s1,ra,s0
    2044:	00100e93          	li	t3,1
    2048:	00400e13          	li	t2,4
    204c:	4dd19c63          	bne	s1,t3,2524 <fail>

0000000000002050 <test_5>:
    2050:	00700093          	li	ra,7
    2054:	00300113          	li	s0,3
    2058:	0020b1b3          	sltu	s1,ra,s0
    205c:	00000e93          	li	t3,0
    2060:	00500e13          	li	t2,5
    2064:	4dd19063          	bne	s1,t3,2524 <fail>

0000000000002068 <test_6>:
    2068:	00000093          	li	ra,0
    206c:	00200137          	lui	s0,0x200
    2070:	ff01011b          	addiw	s0,s0,-16
    2074:	00b11113          	slli	s0,s0,0xb
    2078:	0020b1b3          	sltu	s1,ra,s0
    207c:	00100e93          	li	t3,1
    2080:	00600e13          	li	t2,6
    2084:	4bd19063          	bne	s1,t3,2524 <fail>

0000000000002088 <test_7>:
    2088:	001000b7          	lui	ra,0x100
    208c:	00b09093          	slli	ra,ra,0xb
    2090:	00000113          	li	s0,0
    2094:	0020b1b3          	sltu	s1,ra,s0
    2098:	00000e93          	li	t3,0
    209c:	00700e13          	li	t2,7
    20a0:	49d19263          	bne	s1,t3,2524 <fail>

00000000000020a4 <test_8>:
    20a4:	001000b7          	lui	ra,0x100
    20a8:	00b09093          	slli	ra,ra,0xb
    20ac:	00200137          	lui	s0,0x200
    20b0:	ff01011b          	addiw	s0,s0,-16
    20b4:	00b11113          	slli	s0,s0,0xb
    20b8:	0020b1b3          	sltu	s1,ra,s0
    20bc:	00100e93          	li	t3,1
    20c0:	00800e13          	li	t2,8
    20c4:	47d19063          	bne	s1,t3,2524 <fail>

00000000000020c8 <test_9>:
    20c8:	00000093          	li	ra,0
    20cc:	00008137          	lui	s0,0x8
    20d0:	fff1011b          	addiw	s0,s0,-1
    20d4:	0020b1b3          	sltu	s1,ra,s0
    20d8:	00100e93          	li	t3,1
    20dc:	00900e13          	li	t2,9
    20e0:	45d19263          	bne	s1,t3,2524 <fail>

00000000000020e4 <test_10>:
    20e4:	800000b7          	lui	ra,0x80000
    20e8:	fff0809b          	addiw	ra,ra,-1
    20ec:	00000113          	li	s0,0
    20f0:	0020b1b3          	sltu	s1,ra,s0
    20f4:	00000e93          	li	t3,0
    20f8:	00a00e13          	li	t2,10
    20fc:	43d19463          	bne	s1,t3,2524 <fail>

0000000000002100 <test_11>:
    2100:	800000b7          	lui	ra,0x80000
    2104:	fff0809b          	addiw	ra,ra,-1
    2108:	00008137          	lui	s0,0x8
    210c:	fff1011b          	addiw	s0,s0,-1
    2110:	0020b1b3          	sltu	s1,ra,s0
    2114:	00000e93          	li	t3,0
    2118:	00b00e13          	li	t2,11
    211c:	41d19463          	bne	s1,t3,2524 <fail>

0000000000002120 <test_12>:
    2120:	001000b7          	lui	ra,0x100
    2124:	00b09093          	slli	ra,ra,0xb
    2128:	00008137          	lui	s0,0x8
    212c:	fff1011b          	addiw	s0,s0,-1
    2130:	0020b1b3          	sltu	s1,ra,s0
    2134:	00000e93          	li	t3,0
    2138:	00c00e13          	li	t2,12
    213c:	3fd19463          	bne	s1,t3,2524 <fail>

0000000000002140 <test_13>:
    2140:	800000b7          	lui	ra,0x80000
    2144:	fff0809b          	addiw	ra,ra,-1
    2148:	00200137          	lui	s0,0x200
    214c:	ff01011b          	addiw	s0,s0,-16
    2150:	00b11113          	slli	s0,s0,0xb
    2154:	0020b1b3          	sltu	s1,ra,s0
    2158:	00100e93          	li	t3,1
    215c:	00d00e13          	li	t2,13
    2160:	3dd19263          	bne	s1,t3,2524 <fail>

0000000000002164 <test_14>:
    2164:	00000093          	li	ra,0
    2168:	00200137          	lui	s0,0x200
    216c:	fff1011b          	addiw	s0,s0,-1
    2170:	00b11113          	slli	s0,s0,0xb
    2174:	7ff10113          	addi	s0,s0,2047 # 2007ff <begin_signature+0x1fe2af>
    2178:	0020b1b3          	sltu	s1,ra,s0
    217c:	00100e93          	li	t3,1
    2180:	00e00e13          	li	t2,14
    2184:	3bd19063          	bne	s1,t3,2524 <fail>

0000000000002188 <test_15>:
    2188:	002000b7          	lui	ra,0x200
    218c:	fff0809b          	addiw	ra,ra,-1
    2190:	00b09093          	slli	ra,ra,0xb
    2194:	7ff08093          	addi	ra,ra,2047 # 2007ff <begin_signature+0x1fe2af>
    2198:	00100113          	li	s0,1
    219c:	0020b1b3          	sltu	s1,ra,s0
    21a0:	00000e93          	li	t3,0
    21a4:	00f00e13          	li	t2,15
    21a8:	37d19e63          	bne	s1,t3,2524 <fail>

00000000000021ac <test_16>:
    21ac:	002000b7          	lui	ra,0x200
    21b0:	fff0809b          	addiw	ra,ra,-1
    21b4:	00b09093          	slli	ra,ra,0xb
    21b8:	7ff08093          	addi	ra,ra,2047 # 2007ff <begin_signature+0x1fe2af>
    21bc:	00200137          	lui	s0,0x200
    21c0:	fff1011b          	addiw	s0,s0,-1
    21c4:	00b11113          	slli	s0,s0,0xb
    21c8:	7ff10113          	addi	s0,s0,2047 # 2007ff <begin_signature+0x1fe2af>
    21cc:	0020b1b3          	sltu	s1,ra,s0
    21d0:	00000e93          	li	t3,0
    21d4:	01000e13          	li	t2,16
    21d8:	35d19663          	bne	s1,t3,2524 <fail>

00000000000021dc <test_17>:
    21dc:	00e00093          	li	ra,14
    21e0:	00d00113          	li	s0,13
    21e4:	0020b0b3          	sltu	ra,ra,s0
    21e8:	00000e93          	li	t3,0
    21ec:	01100e13          	li	t2,17
    21f0:	33d09a63          	bne	ra,t3,2524 <fail>

00000000000021f4 <test_18>:
    21f4:	00b00093          	li	ra,11
    21f8:	00d00113          	li	s0,13
    21fc:	0020b133          	sltu	s0,ra,s0
    2200:	00100e93          	li	t3,1
    2204:	01200e13          	li	t2,18
    2208:	31d11e63          	bne	s0,t3,2524 <fail>

000000000000220c <test_19>:
    220c:	00d00093          	li	ra,13
    2210:	0010b0b3          	sltu	ra,ra,ra
    2214:	00000e93          	li	t3,0
    2218:	01300e13          	li	t2,19
    221c:	31d09463          	bne	ra,t3,2524 <fail>

0000000000002220 <test_20>:
    2220:	00000213          	li	s2,0
    2224:	00b00093          	li	ra,11
    2228:	00d00113          	li	s0,13
    222c:	0020b1b3          	sltu	s1,ra,s0
    2230:	00018313          	mv	s4,s1
    2234:	00120213          	addi	s2,s2,1
    2238:	00200293          	li	s3,2
    223c:	fe5214e3          	bne	s2,s3,2224 <test_20+0x4>
    2240:	00100e93          	li	t3,1
    2244:	01400e13          	li	t2,20
    2248:	2dd31e63          	bne	s4,t3,2524 <fail>

000000000000224c <test_21>:
    224c:	00000213          	li	s2,0
    2250:	00e00093          	li	ra,14
    2254:	00d00113          	li	s0,13
    2258:	0020b1b3          	sltu	s1,ra,s0
    225c:	00000013          	nop
    2260:	00018313          	mv	s4,s1
    2264:	00120213          	addi	s2,s2,1
    2268:	00200293          	li	s3,2
    226c:	fe5212e3          	bne	s2,s3,2250 <test_21+0x4>
    2270:	00000e93          	li	t3,0
    2274:	01500e13          	li	t2,21
    2278:	2bd31663          	bne	s4,t3,2524 <fail>

000000000000227c <test_22>:
    227c:	00000213          	li	s2,0
    2280:	00c00093          	li	ra,12
    2284:	00d00113          	li	s0,13
    2288:	0020b1b3          	sltu	s1,ra,s0
    228c:	00000013          	nop
    2290:	00000013          	nop
    2294:	00018313          	mv	s4,s1
    2298:	00120213          	addi	s2,s2,1
    229c:	00200293          	li	s3,2
    22a0:	fe5210e3          	bne	s2,s3,2280 <test_22+0x4>
    22a4:	00100e93          	li	t3,1
    22a8:	01600e13          	li	t2,22
    22ac:	27d31c63          	bne	s4,t3,2524 <fail>

00000000000022b0 <test_23>:
    22b0:	00000213          	li	s2,0
    22b4:	00e00093          	li	ra,14
    22b8:	00d00113          	li	s0,13
    22bc:	0020b1b3          	sltu	s1,ra,s0
    22c0:	00120213          	addi	s2,s2,1
    22c4:	00200293          	li	s3,2
    22c8:	fe5216e3          	bne	s2,s3,22b4 <test_23+0x4>
    22cc:	00000e93          	li	t3,0
    22d0:	01700e13          	li	t2,23
    22d4:	25d19863          	bne	s1,t3,2524 <fail>

00000000000022d8 <test_24>:
    22d8:	00000213          	li	s2,0
    22dc:	00b00093          	li	ra,11
    22e0:	00d00113          	li	s0,13
    22e4:	00000013          	nop
    22e8:	0020b1b3          	sltu	s1,ra,s0
    22ec:	00120213          	addi	s2,s2,1
    22f0:	00200293          	li	s3,2
    22f4:	fe5214e3          	bne	s2,s3,22dc <test_24+0x4>
    22f8:	00100e93          	li	t3,1
    22fc:	01800e13          	li	t2,24
    2300:	23d19263          	bne	s1,t3,2524 <fail>

0000000000002304 <test_25>:
    2304:	00000213          	li	s2,0
    2308:	00f00093          	li	ra,15
    230c:	00d00113          	li	s0,13
    2310:	00000013          	nop
    2314:	00000013          	nop
    2318:	0020b1b3          	sltu	s1,ra,s0
    231c:	00120213          	addi	s2,s2,1
    2320:	00200293          	li	s3,2
    2324:	fe5212e3          	bne	s2,s3,2308 <test_25+0x4>
    2328:	00000e93          	li	t3,0
    232c:	01900e13          	li	t2,25
    2330:	1fd19a63          	bne	s1,t3,2524 <fail>

0000000000002334 <test_26>:
    2334:	00000213          	li	s2,0
    2338:	00a00093          	li	ra,10
    233c:	00000013          	nop
    2340:	00d00113          	li	s0,13
    2344:	0020b1b3          	sltu	s1,ra,s0
    2348:	00120213          	addi	s2,s2,1
    234c:	00200293          	li	s3,2
    2350:	fe5214e3          	bne	s2,s3,2338 <test_26+0x4>
    2354:	00100e93          	li	t3,1
    2358:	01a00e13          	li	t2,26
    235c:	1dd19463          	bne	s1,t3,2524 <fail>

0000000000002360 <test_27>:
    2360:	00000213          	li	s2,0
    2364:	01000093          	li	ra,16
    2368:	00000013          	nop
    236c:	00d00113          	li	s0,13
    2370:	00000013          	nop
    2374:	0020b1b3          	sltu	s1,ra,s0
    2378:	00120213          	addi	s2,s2,1
    237c:	00200293          	li	s3,2
    2380:	fe5212e3          	bne	s2,s3,2364 <test_27+0x4>
    2384:	00000e93          	li	t3,0
    2388:	01b00e13          	li	t2,27
    238c:	19d19c63          	bne	s1,t3,2524 <fail>

0000000000002390 <test_28>:
    2390:	00000213          	li	s2,0
    2394:	00900093          	li	ra,9
    2398:	00000013          	nop
    239c:	00000013          	nop
    23a0:	00d00113          	li	s0,13
    23a4:	0020b1b3          	sltu	s1,ra,s0
    23a8:	00120213          	addi	s2,s2,1
    23ac:	00200293          	li	s3,2
    23b0:	fe5212e3          	bne	s2,s3,2394 <test_28+0x4>
    23b4:	00100e93          	li	t3,1
    23b8:	01c00e13          	li	t2,28
    23bc:	17d19463          	bne	s1,t3,2524 <fail>

00000000000023c0 <test_29>:
    23c0:	00000213          	li	s2,0
    23c4:	00d00113          	li	s0,13
    23c8:	01100093          	li	ra,17
    23cc:	0020b1b3          	sltu	s1,ra,s0
    23d0:	00120213          	addi	s2,s2,1
    23d4:	00200293          	li	s3,2
    23d8:	fe5216e3          	bne	s2,s3,23c4 <test_29+0x4>
    23dc:	00000e93          	li	t3,0
    23e0:	01d00e13          	li	t2,29
    23e4:	15d19063          	bne	s1,t3,2524 <fail>

00000000000023e8 <test_30>:
    23e8:	00000213          	li	s2,0
    23ec:	00d00113          	li	s0,13
    23f0:	00800093          	li	ra,8
    23f4:	00000013          	nop
    23f8:	0020b1b3          	sltu	s1,ra,s0
    23fc:	00120213          	addi	s2,s2,1
    2400:	00200293          	li	s3,2
    2404:	fe5214e3          	bne	s2,s3,23ec <test_30+0x4>
    2408:	00100e93          	li	t3,1
    240c:	01e00e13          	li	t2,30
    2410:	11d19a63          	bne	s1,t3,2524 <fail>

0000000000002414 <test_31>:
    2414:	00000213          	li	s2,0
    2418:	00d00113          	li	s0,13
    241c:	01200093          	li	ra,18
    2420:	00000013          	nop
    2424:	00000013          	nop
    2428:	0020b1b3          	sltu	s1,ra,s0
    242c:	00120213          	addi	s2,s2,1
    2430:	00200293          	li	s3,2
    2434:	fe5212e3          	bne	s2,s3,2418 <test_31+0x4>
    2438:	00000e93          	li	t3,0
    243c:	01f00e13          	li	t2,31
    2440:	0fd19263          	bne	s1,t3,2524 <fail>

0000000000002444 <test_32>:
    2444:	00000213          	li	s2,0
    2448:	00d00113          	li	s0,13
    244c:	00000013          	nop
    2450:	00700093          	li	ra,7
    2454:	0020b1b3          	sltu	s1,ra,s0
    2458:	00120213          	addi	s2,s2,1
    245c:	00200293          	li	s3,2
    2460:	fe5214e3          	bne	s2,s3,2448 <test_32+0x4>
    2464:	00100e93          	li	t3,1
    2468:	02000e13          	li	t2,32
    246c:	0bd19c63          	bne	s1,t3,2524 <fail>

0000000000002470 <test_33>:
    2470:	00000213          	li	s2,0
    2474:	00d00113          	li	s0,13
    2478:	00000013          	nop
    247c:	01300093          	li	ra,19
    2480:	00000013          	nop
    2484:	0020b1b3          	sltu	s1,ra,s0
    2488:	00120213          	addi	s2,s2,1
    248c:	00200293          	li	s3,2
    2490:	fe5212e3          	bne	s2,s3,2474 <test_33+0x4>
    2494:	00000e93          	li	t3,0
    2498:	02100e13          	li	t2,33
    249c:	09d19463          	bne	s1,t3,2524 <fail>

00000000000024a0 <test_34>:
    24a0:	00000213          	li	s2,0
    24a4:	00d00113          	li	s0,13
    24a8:	00000013          	nop
    24ac:	00000013          	nop
    24b0:	00600093          	li	ra,6
    24b4:	0020b1b3          	sltu	s1,ra,s0
    24b8:	00120213          	addi	s2,s2,1
    24bc:	00200293          	li	s3,2
    24c0:	fe5212e3          	bne	s2,s3,24a4 <test_34+0x4>
    24c4:	00100e93          	li	t3,1
    24c8:	02200e13          	li	t2,34
    24cc:	05d19c63          	bne	s1,t3,2524 <fail>

00000000000024d0 <test_35>:
    24d0:	fff00093          	li	ra,-1
    24d4:	00103133          	snez	s0,ra
    24d8:	00100e93          	li	t3,1
    24dc:	02300e13          	li	t2,35
    24e0:	05d11263          	bne	s0,t3,2524 <fail>

00000000000024e4 <test_36>:
    24e4:	fff00093          	li	ra,-1
    24e8:	0000b133          	sltu	s0,ra,zero
    24ec:	00000e93          	li	t3,0
    24f0:	02400e13          	li	t2,36
    24f4:	03d11863          	bne	s0,t3,2524 <fail>

00000000000024f8 <test_37>:
    24f8:	000030b3          	snez	ra,zero
    24fc:	00000e93          	li	t3,0
    2500:	02500e13          	li	t2,37
    2504:	03d09063          	bne	ra,t3,2524 <fail>

0000000000002508 <test_38>:
    2508:	01000093          	li	ra,16
    250c:	01e00113          	li	s0,30
    2510:	0020b033          	sltu	zero,ra,s0
    2514:	00000e93          	li	t3,0
    2518:	02600e13          	li	t2,38
    251c:	01d01463          	bne	zero,t3,2524 <fail>
    2520:	01c01e63          	bne	zero,t2,253c <pass>

0000000000002524 <fail>:
    2524:	0ff0000f          	fence
    2528:	000e0863          	beqz	t2,2538 <fail+0x14>
    252c:	001e1e13          	slli	t2,t2,0x1
    2530:	001e6e13          	ori	t2,t2,1
    2534:	51ee1073          	csrw	tohost,t2
    2538:	00000063          	b	2538 <fail+0x14>

000000000000253c <pass>:
    253c:	0ff0000f          	fence
    2540:	51e0d073          	csrwi	tohost,1
    2544:	00000063          	b	2544 <pass+0x8>
    2548:	00000013          	nop
    254c:	00000013          	nop
