
rv64ui-pt-vec-xori:     file format elf64-littleriscv


Disassembly of section .text:

0000000000002000 <_start>:
    2000:	50b02973          	csrr	a0,hartid
    2004:	00091063          	bnez	a0,2004 <_start+0x4>
    2008:	10000913          	li	a0,256
    200c:	50a92073          	csrs	status,a0
    2010:	50a029f3          	csrr	a1,status
    2014:	01397933          	and	a0,a0,a1
    2018:	00091663          	bnez	a0,2024 <_start+0x24>
    201c:	00100d93          	li	t1,1
    2020:	00000073          	scall
    2024:	50f01073          	csrw	clear_ipi,zero
    2028:	50a02973          	csrr	a0,status
    202c:	00ff09b7          	lui	a1,0xff0
    2030:	01396933          	or	a0,a0,a1
    2034:	50a91073          	csrw	status,a0
    2038:	00000917          	auipc	a0,0x0
    203c:	02090913          	addi	a0,a0,32 # 2058 <_handler>
    2040:	50891073          	csrw	evec,a0
    2044:	50601073          	csrw	count,zero
    2048:	06400913          	li	a0,100
    204c:	50791073          	csrw	compare,a0
    2050:	50a26073          	csrsi	status,4
    2054:	16000863          	b	21c4 <test_2>

0000000000002058 <_handler>:
    2058:	50091073          	csrw	sup0,a0
    205c:	50199073          	csrw	sup1,a1
    2060:	50902973          	csrr	a0,cause
    2064:	00600993          	li	a1,6
    2068:	03391863          	bne	a0,a1,2098 <_cont>
    206c:	00100993          	li	a1,1
    2070:	013d9863          	bne	t1,a1,2080 <_fail>

0000000000002074 <_pass>:
    2074:	0ff0000f          	fence
    2078:	51e0d073          	csrwi	tohost,1
    207c:	00000063          	b	207c <_pass+0x8>

0000000000002080 <_fail>:
    2080:	0ff0000f          	fence
    2084:	000e0863          	beqz	t2,2094 <_fail+0x14>
    2088:	001e1e13          	slli	t2,t2,0x1
    208c:	001e6e13          	ori	t2,t2,1
    2090:	51ee1073          	csrw	tohost,t2
    2094:	00000063          	b	2094 <_fail+0x14>

0000000000002098 <_cont>:
    2098:	50c02973          	csrr	a0,impl
    209c:	00200993          	li	a1,2
    20a0:	01390e63          	beq	a0,a1,20bc <_rocket_handler>
    20a4:	0000402b          	vxcptcause	zero
    20a8:	00000917          	auipc	a0,0x0
    20ac:	71890913          	addi	a0,a0,1816 # 27c0 <evac>
    20b0:	0009302b          	vxcptsave	a0
    20b4:	0209302b          	vxcptrestore	a0
    20b8:	0ec0006f          	j	21a4 <_exit>

00000000000020bc <_rocket_handler>:
    20bc:	00000917          	auipc	a0,0x0
    20c0:	64490913          	addi	a0,a0,1604 # 2700 <regspill>
    20c4:	01493023          	sd	a2,0(a0)
    20c8:	01593423          	sd	a3,8(a0)
    20cc:	01693823          	sd	a4,16(a0)
    20d0:	01793c23          	sd	a5,24(a0)
    20d4:	02293023          	sd	s0,32(a0)
    20d8:	02393423          	sd	s1,40(a0)
    20dc:	0000410b          	vgetcfg	s0
    20e0:	0200418b          	vgetvl	s1
    20e4:	00000917          	auipc	a0,0x0
    20e8:	6dc90913          	addi	a0,a0,1756 # 27c0 <evac>
    20ec:	0609302b          	vxcptevac	a0
    20f0:	0001200b          	vsetcfg	s0
    20f4:	0001e18b          	vsetvl	s1,s1
    20f8:	0800302b          	vxcpthold
    20fc:	00000b93          	li	a5,0

0000000000002100 <_handler_loop>:
    2100:	00093983          	ld	a1,0(a0)
    2104:	00890913          	addi	a0,a0,8
    2108:	0609ca63          	bltz	a1,217c <_done>
    210c:	0209da13          	srli	a2,a1,0x20
    2110:	001a7a13          	andi	a2,a2,1
    2114:	040a0863          	beqz	a2,2164 <_vcnt>

0000000000002118 <_vcmd>:
    2118:	000b8463          	beqz	a5,2120 <_vcmd_skip>
    211c:	0b5b302b          	venqcmd	a4,a3

0000000000002120 <_vcmd_skip>:
    2120:	00100b93          	li	a5,1
    2124:	00098b13          	mv	a4,a1
    2128:	024b5a93          	srli	a3,a4,0x24
    212c:	001afa93          	andi	a3,a3,1

0000000000002130 <_vimm1>:
    2130:	023b5a13          	srli	a2,a4,0x23
    2134:	001a7a13          	andi	a2,a2,1
    2138:	000a0863          	beqz	a2,2148 <_vimm2>
    213c:	00093983          	ld	a1,0(a0)
    2140:	00890913          	addi	a0,a0,8
    2144:	0d59b02b          	venqimm1	a1,a3

0000000000002148 <_vimm2>:
    2148:	022b5a13          	srli	a2,a4,0x22
    214c:	001a7a13          	andi	a2,a2,1
    2150:	020a0463          	beqz	a2,2178 <_end>
    2154:	00093983          	ld	a1,0(a0)
    2158:	00890913          	addi	a0,a0,8
    215c:	0f59b02b          	venqimm2	a1,a3
    2160:	0180006f          	j	2178 <_end>

0000000000002164 <_vcnt>:
    2164:	00093a03          	ld	a2,0(a0)
    2168:	01fa5a13          	srli	a2,a2,0x1f
    216c:	002a7a13          	andi	a2,a2,2
    2170:	014aeab3          	or	a3,a3,a2
    2174:	1159b02b          	venqcnt	a1,a3

0000000000002178 <_end>:
    2178:	f89ff06f          	j	2100 <_handler_loop>

000000000000217c <_done>:
    217c:	000b8463          	beqz	a5,2184 <_done_skip>
    2180:	0b5b302b          	venqcmd	a4,a3

0000000000002184 <_done_skip>:
    2184:	00000917          	auipc	a0,0x0
    2188:	57c90913          	addi	a0,a0,1404 # 2700 <regspill>
    218c:	00093a03          	ld	a2,0(a0)
    2190:	00893a83          	ld	a3,8(a0)
    2194:	01093b03          	ld	a4,16(a0)
    2198:	01893b83          	ld	a5,24(a0)
    219c:	02093103          	ld	s0,32(a0)
    21a0:	02893183          	ld	s1,40(a0)

00000000000021a4 <_exit>:
    21a4:	50a46073          	csrsi	status,8
    21a8:	50a17073          	csrci	status,2
    21ac:	50602973          	csrr	a0,count
    21b0:	06490913          	addi	a0,a0,100
    21b4:	50791073          	csrw	compare,a0
    21b8:	50002973          	csrr	a0,sup0
    21bc:	501029f3          	csrr	a1,sup1
    21c0:	80000073          	sret

00000000000021c4 <test_2>:
    21c4:	0040200b          	vsetcfg	4,0
    21c8:	00001ab7          	lui	a3,0x1
    21cc:	800a8a9b          	addiw	a3,a3,-2048
    21d0:	000aea8b          	vsetvl	a3,a3
    21d4:	00002937          	lui	a0,0x2
    21d8:	20192c2b          	vf	536(a0) # 2218 <vtcode2>
    21dc:	00008b17          	auipc	a4,0x8
    21e0:	5e4b0b13          	addi	a4,a4,1508 # a7c0 <begin_signature>
    21e4:	060b21fb          	vsd	vx3,a4
    21e8:	0ff0000f          	fence
    21ec:	ff00f9b7          	lui	a1,0xff00f
    21f0:	00f9899b          	addiw	a1,a1,15
    21f4:	00000a13          	li	a2,0
    21f8:	00200e13          	li	t2,2

00000000000021fc <test_loop2>:
    21fc:	000b3903          	ld	a0,0(a4)
    2200:	01390463          	beq	a0,a1,2208 <skip2>
    2204:	4ec0006f          	j	26f0 <fail>

0000000000002208 <skip2>:
    2208:	008b0b13          	addi	a4,a4,8
    220c:	001a0a13          	addi	a2,a2,1
    2210:	ff5a16e3          	bne	a2,a3,21fc <test_loop2>
    2214:	0140006f          	j	2228 <next2>

0000000000002218 <vtcode2>:
    2218:	00ff10b7          	lui	ra,0xff1
    221c:	f000809b          	addiw	ra,ra,-256
    2220:	f0f0c193          	xori	s1,ra,-241
    2224:	00005077          	stop

0000000000002228 <next2>:
    2228:	0040200b          	vsetcfg	4,0
    222c:	00001ab7          	lui	a3,0x1
    2230:	800a8a9b          	addiw	a3,a3,-2048
    2234:	000aea8b          	vsetvl	a3,a3
    2238:	00002937          	lui	a0,0x2
    223c:	26192e2b          	vf	636(a0) # 227c <vtcode3>
    2240:	00008b17          	auipc	a4,0x8
    2244:	580b0b13          	addi	a4,a4,1408 # a7c0 <begin_signature>
    2248:	060b21fb          	vsd	vx3,a4
    224c:	0ff0000f          	fence
    2250:	0ff019b7          	lui	a1,0xff01
    2254:	f009899b          	addiw	a1,a1,-256
    2258:	00000a13          	li	a2,0
    225c:	00300e13          	li	t2,3

0000000000002260 <test_loop3>:
    2260:	000b3903          	ld	a0,0(a4)
    2264:	01390463          	beq	a0,a1,226c <skip3>
    2268:	4880006f          	j	26f0 <fail>

000000000000226c <skip3>:
    226c:	008b0b13          	addi	a4,a4,8
    2270:	001a0a13          	addi	a2,a2,1
    2274:	ff5a16e3          	bne	a2,a3,2260 <test_loop3>
    2278:	0140006f          	j	228c <next3>

000000000000227c <vtcode3>:
    227c:	0ff010b7          	lui	ra,0xff01
    2280:	ff00809b          	addiw	ra,ra,-16
    2284:	0f00c193          	xori	s1,ra,240
    2288:	00005077          	stop

000000000000228c <next3>:
    228c:	0040200b          	vsetcfg	4,0
    2290:	00001ab7          	lui	a3,0x1
    2294:	800a8a9b          	addiw	a3,a3,-2048
    2298:	000aea8b          	vsetvl	a3,a3
    229c:	00002937          	lui	a0,0x2
    22a0:	2e19202b          	vf	736(a0) # 22e0 <vtcode4>
    22a4:	00008b17          	auipc	a4,0x8
    22a8:	51cb0b13          	addi	a4,a4,1308 # a7c0 <begin_signature>
    22ac:	060b21fb          	vsd	vx3,a4
    22b0:	0ff0000f          	fence
    22b4:	00ff19b7          	lui	a1,0xff1
    22b8:	ff09899b          	addiw	a1,a1,-16
    22bc:	00000a13          	li	a2,0
    22c0:	00400e13          	li	t2,4

00000000000022c4 <test_loop4>:
    22c4:	000b3903          	ld	a0,0(a4)
    22c8:	01390463          	beq	a0,a1,22d0 <skip4>
    22cc:	4240006f          	j	26f0 <fail>

00000000000022d0 <skip4>:
    22d0:	008b0b13          	addi	a4,a4,8
    22d4:	001a0a13          	addi	a2,a2,1
    22d8:	ff5a16e3          	bne	a2,a3,22c4 <test_loop4>
    22dc:	0140006f          	j	22f0 <next4>

00000000000022e0 <vtcode4>:
    22e0:	00ff10b7          	lui	ra,0xff1
    22e4:	8ff0809b          	addiw	ra,ra,-1793
    22e8:	70f0c193          	xori	s1,ra,1807
    22ec:	00005077          	stop

00000000000022f0 <next4>:
    22f0:	0040200b          	vsetcfg	4,0
    22f4:	00001ab7          	lui	a3,0x1
    22f8:	800a8a9b          	addiw	a3,a3,-2048
    22fc:	000aea8b          	vsetvl	a3,a3
    2300:	00002937          	lui	a0,0x2
    2304:	3419222b          	vf	836(a0) # 2344 <vtcode5>
    2308:	00008b17          	auipc	a4,0x8
    230c:	4b8b0b13          	addi	a4,a4,1208 # a7c0 <begin_signature>
    2310:	060b21fb          	vsd	vx3,a4
    2314:	0ff0000f          	fence
    2318:	f00ff9b7          	lui	a1,0xf00ff
    231c:	0ff9899b          	addiw	a1,a1,255
    2320:	00000a13          	li	a2,0
    2324:	00500e13          	li	t2,5

0000000000002328 <test_loop5>:
    2328:	000b3903          	ld	a0,0(a4)
    232c:	01390463          	beq	a0,a1,2334 <skip5>
    2330:	3c00006f          	j	26f0 <fail>

0000000000002334 <skip5>:
    2334:	008b0b13          	addi	a4,a4,8
    2338:	001a0a13          	addi	a2,a2,1
    233c:	ff5a16e3          	bne	a2,a3,2328 <test_loop5>
    2340:	0140006f          	j	2354 <next5>

0000000000002344 <vtcode5>:
    2344:	f00ff0b7          	lui	ra,0xf00ff
    2348:	00f0809b          	addiw	ra,ra,15
    234c:	0f00c193          	xori	s1,ra,240
    2350:	00005077          	stop

0000000000002354 <next5>:
    2354:	0020200b          	vsetcfg	2,0
    2358:	00001ab7          	lui	a3,0x1
    235c:	800a8a9b          	addiw	a3,a3,-2048
    2360:	000aea8b          	vsetvl	a3,a3
    2364:	00002937          	lui	a0,0x2
    2368:	3a19242b          	vf	936(a0) # 23a8 <vtcode6>
    236c:	00008b17          	auipc	a4,0x8
    2370:	454b0b13          	addi	a4,a4,1108 # a7c0 <begin_signature>
    2374:	060b20fb          	vsd	vx1,a4
    2378:	0ff0000f          	fence
    237c:	ff00f9b7          	lui	a1,0xff00f
    2380:	00f9899b          	addiw	a1,a1,15
    2384:	00000a13          	li	a2,0
    2388:	00600e13          	li	t2,6

000000000000238c <test_loop6>:
    238c:	000b3903          	ld	a0,0(a4)
    2390:	01390463          	beq	a0,a1,2398 <skip6>
    2394:	35c0006f          	j	26f0 <fail>

0000000000002398 <skip6>:
    2398:	008b0b13          	addi	a4,a4,8
    239c:	001a0a13          	addi	a2,a2,1
    23a0:	ff5a16e3          	bne	a2,a3,238c <test_loop6>
    23a4:	0140006f          	j	23b8 <next6>

00000000000023a8 <vtcode6>:
    23a8:	ff00f0b7          	lui	ra,0xff00f
    23ac:	7000809b          	addiw	ra,ra,1792
    23b0:	70f0c093          	xori	ra,ra,1807
    23b4:	00005077          	stop

00000000000023b8 <next6>:
    23b8:	0050200b          	vsetcfg	5,0
    23bc:	00001ab7          	lui	a3,0x1
    23c0:	800a8a9b          	addiw	a3,a3,-2048
    23c4:	000aea8b          	vsetvl	a3,a3
    23c8:	00002937          	lui	a0,0x2
    23cc:	4019262b          	vf	1036(a0) # 240c <vtcode7>
    23d0:	00008b17          	auipc	a4,0x8
    23d4:	3f0b0b13          	addi	a4,a4,1008 # a7c0 <begin_signature>
    23d8:	060b227b          	vsd	vx4,a4
    23dc:	0ff0000f          	fence
    23e0:	0ff019b7          	lui	a1,0xff01
    23e4:	f009899b          	addiw	a1,a1,-256
    23e8:	00000a13          	li	a2,0
    23ec:	00700e13          	li	t2,7

00000000000023f0 <test_loop7>:
    23f0:	000b3903          	ld	a0,0(a4)
    23f4:	01390463          	beq	a0,a1,23fc <skip7>
    23f8:	2f80006f          	j	26f0 <fail>

00000000000023fc <skip7>:
    23fc:	008b0b13          	addi	a4,a4,8
    2400:	001a0a13          	addi	a2,a2,1
    2404:	ff5a16e3          	bne	a2,a3,23f0 <test_loop7>
    2408:	0180006f          	j	2420 <next7>

000000000000240c <vtcode7>:
    240c:	0ff010b7          	lui	ra,0xff01
    2410:	ff00809b          	addiw	ra,ra,-16
    2414:	0f00c193          	xori	s1,ra,240
    2418:	00018213          	mv	s2,s1
    241c:	00005077          	stop

0000000000002420 <next7>:
    2420:	0050200b          	vsetcfg	5,0
    2424:	00001ab7          	lui	a3,0x1
    2428:	800a8a9b          	addiw	a3,a3,-2048
    242c:	000aea8b          	vsetvl	a3,a3
    2430:	00002937          	lui	a0,0x2
    2434:	46192a2b          	vf	1140(a0) # 2474 <vtcode8>
    2438:	00008b17          	auipc	a4,0x8
    243c:	388b0b13          	addi	a4,a4,904 # a7c0 <begin_signature>
    2440:	060b227b          	vsd	vx4,a4
    2444:	0ff0000f          	fence
    2448:	00ff19b7          	lui	a1,0xff1
    244c:	ff09899b          	addiw	a1,a1,-16
    2450:	00000a13          	li	a2,0
    2454:	00800e13          	li	t2,8

0000000000002458 <test_loop8>:
    2458:	000b3903          	ld	a0,0(a4)
    245c:	01390463          	beq	a0,a1,2464 <skip8>
    2460:	2900006f          	j	26f0 <fail>

0000000000002464 <skip8>:
    2464:	008b0b13          	addi	a4,a4,8
    2468:	001a0a13          	addi	a2,a2,1
    246c:	ff5a16e3          	bne	a2,a3,2458 <test_loop8>
    2470:	01c0006f          	j	248c <next8>

0000000000002474 <vtcode8>:
    2474:	00ff10b7          	lui	ra,0xff1
    2478:	8ff0809b          	addiw	ra,ra,-1793
    247c:	70f0c193          	xori	s1,ra,1807
    2480:	00000013          	nop
    2484:	00018213          	mv	s2,s1
    2488:	00005077          	stop

000000000000248c <next8>:
    248c:	0050200b          	vsetcfg	5,0
    2490:	00001ab7          	lui	a3,0x1
    2494:	800a8a9b          	addiw	a3,a3,-2048
    2498:	000aea8b          	vsetvl	a3,a3
    249c:	00002937          	lui	a0,0x2
    24a0:	4e19202b          	vf	1248(a0) # 24e0 <vtcode9>
    24a4:	00008b17          	auipc	a4,0x8
    24a8:	31cb0b13          	addi	a4,a4,796 # a7c0 <begin_signature>
    24ac:	060b227b          	vsd	vx4,a4
    24b0:	0ff0000f          	fence
    24b4:	f00ff9b7          	lui	a1,0xf00ff
    24b8:	0ff9899b          	addiw	a1,a1,255
    24bc:	00000a13          	li	a2,0
    24c0:	00900e13          	li	t2,9

00000000000024c4 <test_loop9>:
    24c4:	000b3903          	ld	a0,0(a4)
    24c8:	01390463          	beq	a0,a1,24d0 <skip9>
    24cc:	2240006f          	j	26f0 <fail>

00000000000024d0 <skip9>:
    24d0:	008b0b13          	addi	a4,a4,8
    24d4:	001a0a13          	addi	a2,a2,1
    24d8:	ff5a16e3          	bne	a2,a3,24c4 <test_loop9>
    24dc:	0200006f          	j	24fc <next9>

00000000000024e0 <vtcode9>:
    24e0:	f00ff0b7          	lui	ra,0xf00ff
    24e4:	00f0809b          	addiw	ra,ra,15
    24e8:	0f00c193          	xori	s1,ra,240
    24ec:	00000013          	nop
    24f0:	00000013          	nop
    24f4:	00018213          	mv	s2,s1
    24f8:	00005077          	stop

00000000000024fc <next9>:
    24fc:	0040200b          	vsetcfg	4,0
    2500:	00001ab7          	lui	a3,0x1
    2504:	800a8a9b          	addiw	a3,a3,-2048
    2508:	000aea8b          	vsetvl	a3,a3
    250c:	00002937          	lui	a0,0x2
    2510:	5419282b          	vf	1360(a0) # 2550 <vtcode10>
    2514:	00008b17          	auipc	a4,0x8
    2518:	2acb0b13          	addi	a4,a4,684 # a7c0 <begin_signature>
    251c:	060b21fb          	vsd	vx3,a4
    2520:	0ff0000f          	fence
    2524:	0ff019b7          	lui	a1,0xff01
    2528:	f009899b          	addiw	a1,a1,-256
    252c:	00000a13          	li	a2,0
    2530:	00a00e13          	li	t2,10

0000000000002534 <test_loop10>:
    2534:	000b3903          	ld	a0,0(a4)
    2538:	01390463          	beq	a0,a1,2540 <skip10>
    253c:	1b40006f          	j	26f0 <fail>

0000000000002540 <skip10>:
    2540:	008b0b13          	addi	a4,a4,8
    2544:	001a0a13          	addi	a2,a2,1
    2548:	ff5a16e3          	bne	a2,a3,2534 <test_loop10>
    254c:	0140006f          	j	2560 <next10>

0000000000002550 <vtcode10>:
    2550:	0ff010b7          	lui	ra,0xff01
    2554:	ff00809b          	addiw	ra,ra,-16
    2558:	0f00c193          	xori	s1,ra,240
    255c:	00005077          	stop

0000000000002560 <next10>:
    2560:	0040200b          	vsetcfg	4,0
    2564:	00001ab7          	lui	a3,0x1
    2568:	800a8a9b          	addiw	a3,a3,-2048
    256c:	000aea8b          	vsetvl	a3,a3
    2570:	00002937          	lui	a0,0x2
    2574:	5a192a2b          	vf	1460(a0) # 25b4 <vtcode11>
    2578:	00008b17          	auipc	a4,0x8
    257c:	248b0b13          	addi	a4,a4,584 # a7c0 <begin_signature>
    2580:	060b21fb          	vsd	vx3,a4
    2584:	0ff0000f          	fence
    2588:	00ff19b7          	lui	a1,0xff1
    258c:	ff09899b          	addiw	a1,a1,-16
    2590:	00000a13          	li	a2,0
    2594:	00b00e13          	li	t2,11

0000000000002598 <test_loop11>:
    2598:	000b3903          	ld	a0,0(a4)
    259c:	01390463          	beq	a0,a1,25a4 <skip11>
    25a0:	1500006f          	j	26f0 <fail>

00000000000025a4 <skip11>:
    25a4:	008b0b13          	addi	a4,a4,8
    25a8:	001a0a13          	addi	a2,a2,1
    25ac:	ff5a16e3          	bne	a2,a3,2598 <test_loop11>
    25b0:	0180006f          	j	25c8 <next11>

00000000000025b4 <vtcode11>:
    25b4:	00ff10b7          	lui	ra,0xff1
    25b8:	fff0809b          	addiw	ra,ra,-1
    25bc:	00000013          	nop
    25c0:	00f0c193          	xori	s1,ra,15
    25c4:	00005077          	stop

00000000000025c8 <next11>:
    25c8:	0040200b          	vsetcfg	4,0
    25cc:	00001ab7          	lui	a3,0x1
    25d0:	800a8a9b          	addiw	a3,a3,-2048
    25d4:	000aea8b          	vsetvl	a3,a3
    25d8:	00002937          	lui	a0,0x2
    25dc:	60192e2b          	vf	1564(a0) # 261c <vtcode12>
    25e0:	00008b17          	auipc	a4,0x8
    25e4:	1e0b0b13          	addi	a4,a4,480 # a7c0 <begin_signature>
    25e8:	060b21fb          	vsd	vx3,a4
    25ec:	0ff0000f          	fence
    25f0:	f00ff9b7          	lui	a1,0xf00ff
    25f4:	0ff9899b          	addiw	a1,a1,255
    25f8:	00000a13          	li	a2,0
    25fc:	00c00e13          	li	t2,12

0000000000002600 <test_loop12>:
    2600:	000b3903          	ld	a0,0(a4)
    2604:	01390463          	beq	a0,a1,260c <skip12>
    2608:	0e80006f          	j	26f0 <fail>

000000000000260c <skip12>:
    260c:	008b0b13          	addi	a4,a4,8
    2610:	001a0a13          	addi	a2,a2,1
    2614:	ff5a16e3          	bne	a2,a3,2600 <test_loop12>
    2618:	01c0006f          	j	2634 <next12>

000000000000261c <vtcode12>:
    261c:	f00ff0b7          	lui	ra,0xf00ff
    2620:	00f0809b          	addiw	ra,ra,15
    2624:	00000013          	nop
    2628:	00000013          	nop
    262c:	0f00c193          	xori	s1,ra,240
    2630:	00005077          	stop

0000000000002634 <next12>:
    2634:	0020200b          	vsetcfg	2,0
    2638:	00001ab7          	lui	a3,0x1
    263c:	800a8a9b          	addiw	a3,a3,-2048
    2640:	000aea8b          	vsetvl	a3,a3
    2644:	00002937          	lui	a0,0x2
    2648:	6819222b          	vf	1668(a0) # 2684 <vtcode13>
    264c:	00008b17          	auipc	a4,0x8
    2650:	174b0b13          	addi	a4,a4,372 # a7c0 <begin_signature>
    2654:	060b20fb          	vsd	vx1,a4
    2658:	0ff0000f          	fence
    265c:	0f000993          	li	a1,240
    2660:	00000a13          	li	a2,0
    2664:	00d00e13          	li	t2,13

0000000000002668 <test_loop13>:
    2668:	000b3903          	ld	a0,0(a4)
    266c:	01390463          	beq	a0,a1,2674 <skip13>
    2670:	0800006f          	j	26f0 <fail>

0000000000002674 <skip13>:
    2674:	008b0b13          	addi	a4,a4,8
    2678:	001a0a13          	addi	a2,a2,1
    267c:	ff5a16e3          	bne	a2,a3,2668 <test_loop13>
    2680:	00c0006f          	j	268c <next13>

0000000000002684 <vtcode13>:
    2684:	0f004093          	xori	ra,zero,240
    2688:	00005077          	stop

000000000000268c <next13>:
    268c:	0020200b          	vsetcfg	2,0
    2690:	00001ab7          	lui	a3,0x1
    2694:	800a8a9b          	addiw	a3,a3,-2048
    2698:	000aea8b          	vsetvl	a3,a3
    269c:	00002937          	lui	a0,0x2
    26a0:	6c192e2b          	vf	1756(a0) # 26dc <vtcode14>
    26a4:	00008b17          	auipc	a4,0x8
    26a8:	11cb0b13          	addi	a4,a4,284 # a7c0 <begin_signature>
    26ac:	060b207b          	vsd	vx0,a4
    26b0:	0ff0000f          	fence
    26b4:	00000993          	li	a1,0
    26b8:	00000a13          	li	a2,0
    26bc:	00e00e13          	li	t2,14

00000000000026c0 <test_loop14>:
    26c0:	000b3903          	ld	a0,0(a4)
    26c4:	01390463          	beq	a0,a1,26cc <skip14>
    26c8:	0280006f          	j	26f0 <fail>

00000000000026cc <skip14>:
    26cc:	008b0b13          	addi	a4,a4,8
    26d0:	001a0a13          	addi	a2,a2,1
    26d4:	ff5a16e3          	bne	a2,a3,26c0 <test_loop14>
    26d8:	0140006f          	j	26ec <next14>

00000000000026dc <vtcode14>:
    26dc:	00ff00b7          	lui	ra,0xff0
    26e0:	0ff0809b          	addiw	ra,ra,255
    26e4:	70f0c013          	xori	zero,ra,1807
    26e8:	00005077          	stop

00000000000026ec <next14>:
    26ec:	01c01663          	bne	zero,t2,26f8 <pass>

00000000000026f0 <fail>:
    26f0:	00200d93          	li	t1,2
    26f4:	00000073          	scall

00000000000026f8 <pass>:
    26f8:	00100d93          	li	t1,1
    26fc:	00000073          	scall
