
rv64ui-p-srlw:     file format elf64-littleriscv


Disassembly of section .text:

0000000000002000 <_start>:
    2000:	50b02973          	csrr	a0,hartid
    2004:	00091063          	bnez	a0,2004 <_start+0x4>

0000000000002008 <test_2>:
    2008:	800000b7          	lui	ra,0x80000
    200c:	00000113          	li	s0,0
    2010:	0020d1bb          	srlw	s1,ra,s0
    2014:	80000eb7          	lui	t3,0x80000
    2018:	00200e13          	li	t2,2
    201c:	57d19863          	bne	s1,t3,258c <fail>

0000000000002020 <test_3>:
    2020:	800000b7          	lui	ra,0x80000
    2024:	00100113          	li	s0,1
    2028:	0020d1bb          	srlw	s1,ra,s0
    202c:	40000eb7          	lui	t3,0x40000
    2030:	00300e13          	li	t2,3
    2034:	55d19c63          	bne	s1,t3,258c <fail>

0000000000002038 <test_4>:
    2038:	800000b7          	lui	ra,0x80000
    203c:	00700113          	li	s0,7
    2040:	0020d1bb          	srlw	s1,ra,s0
    2044:	01000eb7          	lui	t3,0x1000
    2048:	00400e13          	li	t2,4
    204c:	55d19063          	bne	s1,t3,258c <fail>

0000000000002050 <test_5>:
    2050:	800000b7          	lui	ra,0x80000
    2054:	00e00113          	li	s0,14
    2058:	0020d1bb          	srlw	s1,ra,s0
    205c:	00020eb7          	lui	t3,0x20
    2060:	00500e13          	li	t2,5
    2064:	53d19463          	bne	s1,t3,258c <fail>

0000000000002068 <test_6>:
    2068:	800000b7          	lui	ra,0x80000
    206c:	0010809b          	addiw	ra,ra,1
    2070:	01f00113          	li	s0,31
    2074:	0020d1bb          	srlw	s1,ra,s0
    2078:	00100e93          	li	t3,1
    207c:	00600e13          	li	t2,6
    2080:	51d19663          	bne	s1,t3,258c <fail>

0000000000002084 <test_7>:
    2084:	fff00093          	li	ra,-1
    2088:	00000113          	li	s0,0
    208c:	0020d1bb          	srlw	s1,ra,s0
    2090:	fff00e93          	li	t3,-1
    2094:	00700e13          	li	t2,7
    2098:	4fd19a63          	bne	s1,t3,258c <fail>

000000000000209c <test_8>:
    209c:	fff00093          	li	ra,-1
    20a0:	00100113          	li	s0,1
    20a4:	0020d1bb          	srlw	s1,ra,s0
    20a8:	80000eb7          	lui	t3,0x80000
    20ac:	fffe8e9b          	addiw	t3,t3,-1
    20b0:	00800e13          	li	t2,8
    20b4:	4dd19c63          	bne	s1,t3,258c <fail>

00000000000020b8 <test_9>:
    20b8:	fff00093          	li	ra,-1
    20bc:	00700113          	li	s0,7
    20c0:	0020d1bb          	srlw	s1,ra,s0
    20c4:	02000eb7          	lui	t3,0x2000
    20c8:	fffe8e9b          	addiw	t3,t3,-1
    20cc:	00900e13          	li	t2,9
    20d0:	4bd19e63          	bne	s1,t3,258c <fail>

00000000000020d4 <test_10>:
    20d4:	fff00093          	li	ra,-1
    20d8:	00e00113          	li	s0,14
    20dc:	0020d1bb          	srlw	s1,ra,s0
    20e0:	00040eb7          	lui	t3,0x40
    20e4:	fffe8e9b          	addiw	t3,t3,-1
    20e8:	00a00e13          	li	t2,10
    20ec:	4bd19063          	bne	s1,t3,258c <fail>

00000000000020f0 <test_11>:
    20f0:	fff00093          	li	ra,-1
    20f4:	01f00113          	li	s0,31
    20f8:	0020d1bb          	srlw	s1,ra,s0
    20fc:	00100e93          	li	t3,1
    2100:	00b00e13          	li	t2,11
    2104:	49d19463          	bne	s1,t3,258c <fail>

0000000000002108 <test_12>:
    2108:	212120b7          	lui	ra,0x21212
    210c:	1210809b          	addiw	ra,ra,289
    2110:	00000113          	li	s0,0
    2114:	0020d1bb          	srlw	s1,ra,s0
    2118:	21212eb7          	lui	t3,0x21212
    211c:	121e8e9b          	addiw	t3,t3,289
    2120:	00c00e13          	li	t2,12
    2124:	47d19463          	bne	s1,t3,258c <fail>

0000000000002128 <test_13>:
    2128:	212120b7          	lui	ra,0x21212
    212c:	1210809b          	addiw	ra,ra,289
    2130:	00100113          	li	s0,1
    2134:	0020d1bb          	srlw	s1,ra,s0
    2138:	10909eb7          	lui	t3,0x10909
    213c:	090e8e9b          	addiw	t3,t3,144
    2140:	00d00e13          	li	t2,13
    2144:	45d19463          	bne	s1,t3,258c <fail>

0000000000002148 <test_14>:
    2148:	212120b7          	lui	ra,0x21212
    214c:	1210809b          	addiw	ra,ra,289
    2150:	00700113          	li	s0,7
    2154:	0020d1bb          	srlw	s1,ra,s0
    2158:	00424eb7          	lui	t3,0x424
    215c:	242e8e9b          	addiw	t3,t3,578
    2160:	00e00e13          	li	t2,14
    2164:	43d19463          	bne	s1,t3,258c <fail>

0000000000002168 <test_15>:
    2168:	212120b7          	lui	ra,0x21212
    216c:	1210809b          	addiw	ra,ra,289
    2170:	00e00113          	li	s0,14
    2174:	0020d1bb          	srlw	s1,ra,s0
    2178:	00008eb7          	lui	t3,0x8
    217c:	484e8e9b          	addiw	t3,t3,1156
    2180:	00f00e13          	li	t2,15
    2184:	41d19463          	bne	s1,t3,258c <fail>

0000000000002188 <test_16>:
    2188:	212120b7          	lui	ra,0x21212
    218c:	1210809b          	addiw	ra,ra,289
    2190:	01f00113          	li	s0,31
    2194:	0020d1bb          	srlw	s1,ra,s0
    2198:	00000e93          	li	t3,0
    219c:	01000e13          	li	t2,16
    21a0:	3fd19663          	bne	s1,t3,258c <fail>

00000000000021a4 <test_17>:
    21a4:	212120b7          	lui	ra,0x21212
    21a8:	1210809b          	addiw	ra,ra,289
    21ac:	fe000113          	li	s0,-32
    21b0:	0020d1bb          	srlw	s1,ra,s0
    21b4:	21212eb7          	lui	t3,0x21212
    21b8:	121e8e9b          	addiw	t3,t3,289
    21bc:	01100e13          	li	t2,17
    21c0:	3dd19663          	bne	s1,t3,258c <fail>

00000000000021c4 <test_18>:
    21c4:	212120b7          	lui	ra,0x21212
    21c8:	1210809b          	addiw	ra,ra,289
    21cc:	fe100113          	li	s0,-31
    21d0:	0020d1bb          	srlw	s1,ra,s0
    21d4:	10909eb7          	lui	t3,0x10909
    21d8:	090e8e9b          	addiw	t3,t3,144
    21dc:	01200e13          	li	t2,18
    21e0:	3bd19663          	bne	s1,t3,258c <fail>

00000000000021e4 <test_19>:
    21e4:	212120b7          	lui	ra,0x21212
    21e8:	1210809b          	addiw	ra,ra,289
    21ec:	fe700113          	li	s0,-25
    21f0:	0020d1bb          	srlw	s1,ra,s0
    21f4:	00424eb7          	lui	t3,0x424
    21f8:	242e8e9b          	addiw	t3,t3,578
    21fc:	01300e13          	li	t2,19
    2200:	39d19663          	bne	s1,t3,258c <fail>

0000000000002204 <test_20>:
    2204:	212120b7          	lui	ra,0x21212
    2208:	1210809b          	addiw	ra,ra,289
    220c:	fee00113          	li	s0,-18
    2210:	0020d1bb          	srlw	s1,ra,s0
    2214:	00008eb7          	lui	t3,0x8
    2218:	484e8e9b          	addiw	t3,t3,1156
    221c:	01400e13          	li	t2,20
    2220:	37d19663          	bne	s1,t3,258c <fail>

0000000000002224 <test_21>:
    2224:	212120b7          	lui	ra,0x21212
    2228:	1210809b          	addiw	ra,ra,289
    222c:	fff00113          	li	s0,-1
    2230:	0020d1bb          	srlw	s1,ra,s0
    2234:	00000e93          	li	t3,0
    2238:	01500e13          	li	t2,21
    223c:	35d19863          	bne	s1,t3,258c <fail>

0000000000002240 <test_22>:
    2240:	800000b7          	lui	ra,0x80000
    2244:	00700113          	li	s0,7
    2248:	0020d0bb          	srlw	ra,ra,s0
    224c:	01000eb7          	lui	t3,0x1000
    2250:	01600e13          	li	t2,22
    2254:	33d09c63          	bne	ra,t3,258c <fail>

0000000000002258 <test_23>:
    2258:	800000b7          	lui	ra,0x80000
    225c:	00e00113          	li	s0,14
    2260:	0020d13b          	srlw	s0,ra,s0
    2264:	00020eb7          	lui	t3,0x20
    2268:	01700e13          	li	t2,23
    226c:	33d11063          	bne	s0,t3,258c <fail>

0000000000002270 <test_24>:
    2270:	00700093          	li	ra,7
    2274:	0010d0bb          	srlw	ra,ra,ra
    2278:	00000e93          	li	t3,0
    227c:	01800e13          	li	t2,24
    2280:	31d09663          	bne	ra,t3,258c <fail>

0000000000002284 <test_25>:
    2284:	00000213          	li	s2,0
    2288:	800000b7          	lui	ra,0x80000
    228c:	00700113          	li	s0,7
    2290:	0020d1bb          	srlw	s1,ra,s0
    2294:	00018313          	mv	s4,s1
    2298:	00120213          	addi	s2,s2,1
    229c:	00200293          	li	s3,2
    22a0:	fe5214e3          	bne	s2,s3,2288 <test_25+0x4>
    22a4:	01000eb7          	lui	t3,0x1000
    22a8:	01900e13          	li	t2,25
    22ac:	2fd31063          	bne	s4,t3,258c <fail>

00000000000022b0 <test_26>:
    22b0:	00000213          	li	s2,0
    22b4:	800000b7          	lui	ra,0x80000
    22b8:	00e00113          	li	s0,14
    22bc:	0020d1bb          	srlw	s1,ra,s0
    22c0:	00000013          	nop
    22c4:	00018313          	mv	s4,s1
    22c8:	00120213          	addi	s2,s2,1
    22cc:	00200293          	li	s3,2
    22d0:	fe5212e3          	bne	s2,s3,22b4 <test_26+0x4>
    22d4:	00020eb7          	lui	t3,0x20
    22d8:	01a00e13          	li	t2,26
    22dc:	2bd31863          	bne	s4,t3,258c <fail>

00000000000022e0 <test_27>:
    22e0:	00000213          	li	s2,0
    22e4:	800000b7          	lui	ra,0x80000
    22e8:	01f00113          	li	s0,31
    22ec:	0020d1bb          	srlw	s1,ra,s0
    22f0:	00000013          	nop
    22f4:	00000013          	nop
    22f8:	00018313          	mv	s4,s1
    22fc:	00120213          	addi	s2,s2,1
    2300:	00200293          	li	s3,2
    2304:	fe5210e3          	bne	s2,s3,22e4 <test_27+0x4>
    2308:	00100e93          	li	t3,1
    230c:	01b00e13          	li	t2,27
    2310:	27d31e63          	bne	s4,t3,258c <fail>

0000000000002314 <test_28>:
    2314:	00000213          	li	s2,0
    2318:	800000b7          	lui	ra,0x80000
    231c:	00700113          	li	s0,7
    2320:	0020d1bb          	srlw	s1,ra,s0
    2324:	00120213          	addi	s2,s2,1
    2328:	00200293          	li	s3,2
    232c:	fe5216e3          	bne	s2,s3,2318 <test_28+0x4>
    2330:	01000eb7          	lui	t3,0x1000
    2334:	01c00e13          	li	t2,28
    2338:	25d19a63          	bne	s1,t3,258c <fail>

000000000000233c <test_29>:
    233c:	00000213          	li	s2,0
    2340:	800000b7          	lui	ra,0x80000
    2344:	00e00113          	li	s0,14
    2348:	00000013          	nop
    234c:	0020d1bb          	srlw	s1,ra,s0
    2350:	00120213          	addi	s2,s2,1
    2354:	00200293          	li	s3,2
    2358:	fe5214e3          	bne	s2,s3,2340 <test_29+0x4>
    235c:	00020eb7          	lui	t3,0x20
    2360:	01d00e13          	li	t2,29
    2364:	23d19463          	bne	s1,t3,258c <fail>

0000000000002368 <test_30>:
    2368:	00000213          	li	s2,0
    236c:	800000b7          	lui	ra,0x80000
    2370:	01f00113          	li	s0,31
    2374:	00000013          	nop
    2378:	00000013          	nop
    237c:	0020d1bb          	srlw	s1,ra,s0
    2380:	00120213          	addi	s2,s2,1
    2384:	00200293          	li	s3,2
    2388:	fe5212e3          	bne	s2,s3,236c <test_30+0x4>
    238c:	00100e93          	li	t3,1
    2390:	01e00e13          	li	t2,30
    2394:	1fd19c63          	bne	s1,t3,258c <fail>

0000000000002398 <test_31>:
    2398:	00000213          	li	s2,0
    239c:	800000b7          	lui	ra,0x80000
    23a0:	00000013          	nop
    23a4:	00700113          	li	s0,7
    23a8:	0020d1bb          	srlw	s1,ra,s0
    23ac:	00120213          	addi	s2,s2,1
    23b0:	00200293          	li	s3,2
    23b4:	fe5214e3          	bne	s2,s3,239c <test_31+0x4>
    23b8:	01000eb7          	lui	t3,0x1000
    23bc:	01f00e13          	li	t2,31
    23c0:	1dd19663          	bne	s1,t3,258c <fail>

00000000000023c4 <test_32>:
    23c4:	00000213          	li	s2,0
    23c8:	800000b7          	lui	ra,0x80000
    23cc:	00000013          	nop
    23d0:	00e00113          	li	s0,14
    23d4:	00000013          	nop
    23d8:	0020d1bb          	srlw	s1,ra,s0
    23dc:	00120213          	addi	s2,s2,1
    23e0:	00200293          	li	s3,2
    23e4:	fe5212e3          	bne	s2,s3,23c8 <test_32+0x4>
    23e8:	00020eb7          	lui	t3,0x20
    23ec:	02000e13          	li	t2,32
    23f0:	19d19e63          	bne	s1,t3,258c <fail>

00000000000023f4 <test_33>:
    23f4:	00000213          	li	s2,0
    23f8:	800000b7          	lui	ra,0x80000
    23fc:	00000013          	nop
    2400:	00000013          	nop
    2404:	01f00113          	li	s0,31
    2408:	0020d1bb          	srlw	s1,ra,s0
    240c:	00120213          	addi	s2,s2,1
    2410:	00200293          	li	s3,2
    2414:	fe5212e3          	bne	s2,s3,23f8 <test_33+0x4>
    2418:	00100e93          	li	t3,1
    241c:	02100e13          	li	t2,33
    2420:	17d19663          	bne	s1,t3,258c <fail>

0000000000002424 <test_34>:
    2424:	00000213          	li	s2,0
    2428:	00700113          	li	s0,7
    242c:	800000b7          	lui	ra,0x80000
    2430:	0020d1bb          	srlw	s1,ra,s0
    2434:	00120213          	addi	s2,s2,1
    2438:	00200293          	li	s3,2
    243c:	fe5216e3          	bne	s2,s3,2428 <test_34+0x4>
    2440:	01000eb7          	lui	t3,0x1000
    2444:	02200e13          	li	t2,34
    2448:	15d19263          	bne	s1,t3,258c <fail>

000000000000244c <test_35>:
    244c:	00000213          	li	s2,0
    2450:	00e00113          	li	s0,14
    2454:	800000b7          	lui	ra,0x80000
    2458:	00000013          	nop
    245c:	0020d1bb          	srlw	s1,ra,s0
    2460:	00120213          	addi	s2,s2,1
    2464:	00200293          	li	s3,2
    2468:	fe5214e3          	bne	s2,s3,2450 <test_35+0x4>
    246c:	00020eb7          	lui	t3,0x20
    2470:	02300e13          	li	t2,35
    2474:	11d19c63          	bne	s1,t3,258c <fail>

0000000000002478 <test_36>:
    2478:	00000213          	li	s2,0
    247c:	01f00113          	li	s0,31
    2480:	800000b7          	lui	ra,0x80000
    2484:	00000013          	nop
    2488:	00000013          	nop
    248c:	0020d1bb          	srlw	s1,ra,s0
    2490:	00120213          	addi	s2,s2,1
    2494:	00200293          	li	s3,2
    2498:	fe5212e3          	bne	s2,s3,247c <test_36+0x4>
    249c:	00100e93          	li	t3,1
    24a0:	02400e13          	li	t2,36
    24a4:	0fd19463          	bne	s1,t3,258c <fail>

00000000000024a8 <test_37>:
    24a8:	00000213          	li	s2,0
    24ac:	00700113          	li	s0,7
    24b0:	00000013          	nop
    24b4:	800000b7          	lui	ra,0x80000
    24b8:	0020d1bb          	srlw	s1,ra,s0
    24bc:	00120213          	addi	s2,s2,1
    24c0:	00200293          	li	s3,2
    24c4:	fe5214e3          	bne	s2,s3,24ac <test_37+0x4>
    24c8:	01000eb7          	lui	t3,0x1000
    24cc:	02500e13          	li	t2,37
    24d0:	0bd19e63          	bne	s1,t3,258c <fail>

00000000000024d4 <test_38>:
    24d4:	00000213          	li	s2,0
    24d8:	00e00113          	li	s0,14
    24dc:	00000013          	nop
    24e0:	800000b7          	lui	ra,0x80000
    24e4:	00000013          	nop
    24e8:	0020d1bb          	srlw	s1,ra,s0
    24ec:	00120213          	addi	s2,s2,1
    24f0:	00200293          	li	s3,2
    24f4:	fe5212e3          	bne	s2,s3,24d8 <test_38+0x4>
    24f8:	00020eb7          	lui	t3,0x20
    24fc:	02600e13          	li	t2,38
    2500:	09d19663          	bne	s1,t3,258c <fail>

0000000000002504 <test_39>:
    2504:	00000213          	li	s2,0
    2508:	01f00113          	li	s0,31
    250c:	00000013          	nop
    2510:	00000013          	nop
    2514:	800000b7          	lui	ra,0x80000
    2518:	0020d1bb          	srlw	s1,ra,s0
    251c:	00120213          	addi	s2,s2,1
    2520:	00200293          	li	s3,2
    2524:	fe5212e3          	bne	s2,s3,2508 <test_39+0x4>
    2528:	00100e93          	li	t3,1
    252c:	02700e13          	li	t2,39
    2530:	05d19e63          	bne	s1,t3,258c <fail>

0000000000002534 <test_40>:
    2534:	00f00093          	li	ra,15
    2538:	0010513b          	srlw	s0,zero,ra
    253c:	00000e93          	li	t3,0
    2540:	02800e13          	li	t2,40
    2544:	05d11463          	bne	s0,t3,258c <fail>

0000000000002548 <test_41>:
    2548:	02000093          	li	ra,32
    254c:	0000d13b          	srlw	s0,ra,zero
    2550:	02000e93          	li	t3,32
    2554:	02900e13          	li	t2,41
    2558:	03d11a63          	bne	s0,t3,258c <fail>

000000000000255c <test_42>:
    255c:	000050bb          	srlw	ra,zero,zero
    2560:	00000e93          	li	t3,0
    2564:	02a00e13          	li	t2,42
    2568:	03d09263          	bne	ra,t3,258c <fail>

000000000000256c <test_43>:
    256c:	40000093          	li	ra,1024
    2570:	00001137          	lui	s0,0x1
    2574:	8001011b          	addiw	s0,s0,-2048
    2578:	0020d03b          	srlw	zero,ra,s0
    257c:	00000e93          	li	t3,0
    2580:	02b00e13          	li	t2,43
    2584:	01d01463          	bne	zero,t3,258c <fail>
    2588:	01c01e63          	bne	zero,t2,25a4 <pass>

000000000000258c <fail>:
    258c:	0ff0000f          	fence
    2590:	000e0863          	beqz	t2,25a0 <fail+0x14>
    2594:	001e1e13          	slli	t2,t2,0x1
    2598:	001e6e13          	ori	t2,t2,1
    259c:	51ee1073          	csrw	tohost,t2
    25a0:	00000063          	b	25a0 <fail+0x14>

00000000000025a4 <pass>:
    25a4:	0ff0000f          	fence
    25a8:	51e0d073          	csrwi	tohost,1
    25ac:	00000063          	b	25ac <pass+0x8>
