
rv64ui-pt-vec-slt:     file format elf64-littleriscv


Disassembly of section .text:

0000000000002000 <_start>:
    2000:	50b02973          	csrr	a0,hartid
    2004:	00091063          	bnez	a0,2004 <_start+0x4>
    2008:	10000913          	li	a0,256
    200c:	50a92073          	csrs	status,a0
    2010:	50a029f3          	csrr	a1,status
    2014:	01397933          	and	a0,a0,a1
    2018:	00091663          	bnez	a0,2024 <_start+0x24>
    201c:	00100d93          	li	t1,1
    2020:	00000073          	scall
    2024:	50f01073          	csrw	clear_ipi,zero
    2028:	50a02973          	csrr	a0,status
    202c:	00ff09b7          	lui	a1,0xff0
    2030:	01396933          	or	a0,a0,a1
    2034:	50a91073          	csrw	status,a0
    2038:	00000917          	auipc	a0,0x0
    203c:	02090913          	addi	a0,a0,32 # 2058 <_handler>
    2040:	50891073          	csrw	evec,a0
    2044:	50601073          	csrw	count,zero
    2048:	06400913          	li	a0,100
    204c:	50791073          	csrw	compare,a0
    2050:	50a26073          	csrsi	status,4
    2054:	16000863          	b	21c4 <test_2>

0000000000002058 <_handler>:
    2058:	50091073          	csrw	sup0,a0
    205c:	50199073          	csrw	sup1,a1
    2060:	50902973          	csrr	a0,cause
    2064:	00600993          	li	a1,6
    2068:	03391863          	bne	a0,a1,2098 <_cont>
    206c:	00100993          	li	a1,1
    2070:	013d9863          	bne	t1,a1,2080 <_fail>

0000000000002074 <_pass>:
    2074:	0ff0000f          	fence
    2078:	51e0d073          	csrwi	tohost,1
    207c:	00000063          	b	207c <_pass+0x8>

0000000000002080 <_fail>:
    2080:	0ff0000f          	fence
    2084:	000e0863          	beqz	t2,2094 <_fail+0x14>
    2088:	001e1e13          	slli	t2,t2,0x1
    208c:	001e6e13          	ori	t2,t2,1
    2090:	51ee1073          	csrw	tohost,t2
    2094:	00000063          	b	2094 <_fail+0x14>

0000000000002098 <_cont>:
    2098:	50c02973          	csrr	a0,impl
    209c:	00200993          	li	a1,2
    20a0:	01390e63          	beq	a0,a1,20bc <_rocket_handler>
    20a4:	0000402b          	vxcptcause	zero
    20a8:	00001917          	auipc	a0,0x1
    20ac:	03890913          	addi	a0,a0,56 # 30e0 <evac>
    20b0:	0009302b          	vxcptsave	a0
    20b4:	0209302b          	vxcptrestore	a0
    20b8:	0ec0006f          	j	21a4 <_exit>

00000000000020bc <_rocket_handler>:
    20bc:	00001917          	auipc	a0,0x1
    20c0:	f6490913          	addi	a0,a0,-156 # 3020 <regspill>
    20c4:	01493023          	sd	a2,0(a0)
    20c8:	01593423          	sd	a3,8(a0)
    20cc:	01693823          	sd	a4,16(a0)
    20d0:	01793c23          	sd	a5,24(a0)
    20d4:	02293023          	sd	s0,32(a0)
    20d8:	02393423          	sd	s1,40(a0)
    20dc:	0000410b          	vgetcfg	s0
    20e0:	0200418b          	vgetvl	s1
    20e4:	00001917          	auipc	a0,0x1
    20e8:	ffc90913          	addi	a0,a0,-4 # 30e0 <evac>
    20ec:	0609302b          	vxcptevac	a0
    20f0:	0001200b          	vsetcfg	s0
    20f4:	0001e18b          	vsetvl	s1,s1
    20f8:	0800302b          	vxcpthold
    20fc:	00000b93          	li	a5,0

0000000000002100 <_handler_loop>:
    2100:	00093983          	ld	a1,0(a0)
    2104:	00890913          	addi	a0,a0,8
    2108:	0609ca63          	bltz	a1,217c <_done>
    210c:	0209da13          	srli	a2,a1,0x20
    2110:	001a7a13          	andi	a2,a2,1
    2114:	040a0863          	beqz	a2,2164 <_vcnt>

0000000000002118 <_vcmd>:
    2118:	000b8463          	beqz	a5,2120 <_vcmd_skip>
    211c:	0b5b302b          	venqcmd	a4,a3

0000000000002120 <_vcmd_skip>:
    2120:	00100b93          	li	a5,1
    2124:	00098b13          	mv	a4,a1
    2128:	024b5a93          	srli	a3,a4,0x24
    212c:	001afa93          	andi	a3,a3,1

0000000000002130 <_vimm1>:
    2130:	023b5a13          	srli	a2,a4,0x23
    2134:	001a7a13          	andi	a2,a2,1
    2138:	000a0863          	beqz	a2,2148 <_vimm2>
    213c:	00093983          	ld	a1,0(a0)
    2140:	00890913          	addi	a0,a0,8
    2144:	0d59b02b          	venqimm1	a1,a3

0000000000002148 <_vimm2>:
    2148:	022b5a13          	srli	a2,a4,0x22
    214c:	001a7a13          	andi	a2,a2,1
    2150:	020a0463          	beqz	a2,2178 <_end>
    2154:	00093983          	ld	a1,0(a0)
    2158:	00890913          	addi	a0,a0,8
    215c:	0f59b02b          	venqimm2	a1,a3
    2160:	0180006f          	j	2178 <_end>

0000000000002164 <_vcnt>:
    2164:	00093a03          	ld	a2,0(a0)
    2168:	01fa5a13          	srli	a2,a2,0x1f
    216c:	002a7a13          	andi	a2,a2,2
    2170:	014aeab3          	or	a3,a3,a2
    2174:	1159b02b          	venqcnt	a1,a3

0000000000002178 <_end>:
    2178:	f89ff06f          	j	2100 <_handler_loop>

000000000000217c <_done>:
    217c:	000b8463          	beqz	a5,2184 <_done_skip>
    2180:	0b5b302b          	venqcmd	a4,a3

0000000000002184 <_done_skip>:
    2184:	00001917          	auipc	a0,0x1
    2188:	e9c90913          	addi	a0,a0,-356 # 3020 <regspill>
    218c:	00093a03          	ld	a2,0(a0)
    2190:	00893a83          	ld	a3,8(a0)
    2194:	01093b03          	ld	a4,16(a0)
    2198:	01893b83          	ld	a5,24(a0)
    219c:	02093103          	ld	s0,32(a0)
    21a0:	02893183          	ld	s1,40(a0)

00000000000021a4 <_exit>:
    21a4:	50a46073          	csrsi	status,8
    21a8:	50a17073          	csrci	status,2
    21ac:	50602973          	csrr	a0,count
    21b0:	06490913          	addi	a0,a0,100
    21b4:	50791073          	csrw	compare,a0
    21b8:	50002973          	csrr	a0,sup0
    21bc:	501029f3          	csrr	a1,sup1
    21c0:	80000073          	sret

00000000000021c4 <test_2>:
    21c4:	0040200b          	vsetcfg	4,0
    21c8:	00001ab7          	lui	a3,0x1
    21cc:	800a8a9b          	addiw	a3,a3,-2048
    21d0:	000aea8b          	vsetvl	a3,a3
    21d4:	00002937          	lui	a0,0x2
    21d8:	20192a2b          	vf	532(a0) # 2214 <vtcode2>
    21dc:	00009b17          	auipc	a4,0x9
    21e0:	f04b0b13          	addi	a4,a4,-252 # b0e0 <begin_signature>
    21e4:	060b21fb          	vsd	vx3,a4
    21e8:	0ff0000f          	fence
    21ec:	00000993          	li	a1,0
    21f0:	00000a13          	li	a2,0
    21f4:	00200e13          	li	t2,2

00000000000021f8 <test_loop2>:
    21f8:	000b3903          	ld	a0,0(a4)
    21fc:	01390463          	beq	a0,a1,2204 <skip2>
    2200:	6050006f          	j	3004 <fail>

0000000000002204 <skip2>:
    2204:	008b0b13          	addi	a4,a4,8
    2208:	001a0a13          	addi	a2,a2,1
    220c:	ff5a16e3          	bne	a2,a3,21f8 <test_loop2>
    2210:	0140006f          	j	2224 <next2>

0000000000002214 <vtcode2>:
    2214:	00000093          	li	ra,0
    2218:	00000113          	li	s0,0
    221c:	0020a1b3          	slt	s1,ra,s0
    2220:	00005077          	stop

0000000000002224 <next2>:
    2224:	0040200b          	vsetcfg	4,0
    2228:	00001ab7          	lui	a3,0x1
    222c:	800a8a9b          	addiw	a3,a3,-2048
    2230:	000aea8b          	vsetvl	a3,a3
    2234:	00002937          	lui	a0,0x2
    2238:	26192a2b          	vf	628(a0) # 2274 <vtcode3>
    223c:	00009b17          	auipc	a4,0x9
    2240:	ea4b0b13          	addi	a4,a4,-348 # b0e0 <begin_signature>
    2244:	060b21fb          	vsd	vx3,a4
    2248:	0ff0000f          	fence
    224c:	00000993          	li	a1,0
    2250:	00000a13          	li	a2,0
    2254:	00300e13          	li	t2,3

0000000000002258 <test_loop3>:
    2258:	000b3903          	ld	a0,0(a4)
    225c:	01390463          	beq	a0,a1,2264 <skip3>
    2260:	5a50006f          	j	3004 <fail>

0000000000002264 <skip3>:
    2264:	008b0b13          	addi	a4,a4,8
    2268:	001a0a13          	addi	a2,a2,1
    226c:	ff5a16e3          	bne	a2,a3,2258 <test_loop3>
    2270:	0140006f          	j	2284 <next3>

0000000000002274 <vtcode3>:
    2274:	00100093          	li	ra,1
    2278:	00100113          	li	s0,1
    227c:	0020a1b3          	slt	s1,ra,s0
    2280:	00005077          	stop

0000000000002284 <next3>:
    2284:	0040200b          	vsetcfg	4,0
    2288:	00001ab7          	lui	a3,0x1
    228c:	800a8a9b          	addiw	a3,a3,-2048
    2290:	000aea8b          	vsetvl	a3,a3
    2294:	00002937          	lui	a0,0x2
    2298:	2c192a2b          	vf	724(a0) # 22d4 <vtcode4>
    229c:	00009b17          	auipc	a4,0x9
    22a0:	e44b0b13          	addi	a4,a4,-444 # b0e0 <begin_signature>
    22a4:	060b21fb          	vsd	vx3,a4
    22a8:	0ff0000f          	fence
    22ac:	00100993          	li	a1,1
    22b0:	00000a13          	li	a2,0
    22b4:	00400e13          	li	t2,4

00000000000022b8 <test_loop4>:
    22b8:	000b3903          	ld	a0,0(a4)
    22bc:	01390463          	beq	a0,a1,22c4 <skip4>
    22c0:	5450006f          	j	3004 <fail>

00000000000022c4 <skip4>:
    22c4:	008b0b13          	addi	a4,a4,8
    22c8:	001a0a13          	addi	a2,a2,1
    22cc:	ff5a16e3          	bne	a2,a3,22b8 <test_loop4>
    22d0:	0140006f          	j	22e4 <next4>

00000000000022d4 <vtcode4>:
    22d4:	00300093          	li	ra,3
    22d8:	00700113          	li	s0,7
    22dc:	0020a1b3          	slt	s1,ra,s0
    22e0:	00005077          	stop

00000000000022e4 <next4>:
    22e4:	0040200b          	vsetcfg	4,0
    22e8:	00001ab7          	lui	a3,0x1
    22ec:	800a8a9b          	addiw	a3,a3,-2048
    22f0:	000aea8b          	vsetvl	a3,a3
    22f4:	00002937          	lui	a0,0x2
    22f8:	32192a2b          	vf	820(a0) # 2334 <vtcode5>
    22fc:	00009b17          	auipc	a4,0x9
    2300:	de4b0b13          	addi	a4,a4,-540 # b0e0 <begin_signature>
    2304:	060b21fb          	vsd	vx3,a4
    2308:	0ff0000f          	fence
    230c:	00000993          	li	a1,0
    2310:	00000a13          	li	a2,0
    2314:	00500e13          	li	t2,5

0000000000002318 <test_loop5>:
    2318:	000b3903          	ld	a0,0(a4)
    231c:	01390463          	beq	a0,a1,2324 <skip5>
    2320:	4e50006f          	j	3004 <fail>

0000000000002324 <skip5>:
    2324:	008b0b13          	addi	a4,a4,8
    2328:	001a0a13          	addi	a2,a2,1
    232c:	ff5a16e3          	bne	a2,a3,2318 <test_loop5>
    2330:	0140006f          	j	2344 <next5>

0000000000002334 <vtcode5>:
    2334:	00700093          	li	ra,7
    2338:	00300113          	li	s0,3
    233c:	0020a1b3          	slt	s1,ra,s0
    2340:	00005077          	stop

0000000000002344 <next5>:
    2344:	0040200b          	vsetcfg	4,0
    2348:	00001ab7          	lui	a3,0x1
    234c:	800a8a9b          	addiw	a3,a3,-2048
    2350:	000aea8b          	vsetvl	a3,a3
    2354:	00002937          	lui	a0,0x2
    2358:	38192a2b          	vf	916(a0) # 2394 <vtcode6>
    235c:	00009b17          	auipc	a4,0x9
    2360:	d84b0b13          	addi	a4,a4,-636 # b0e0 <begin_signature>
    2364:	060b21fb          	vsd	vx3,a4
    2368:	0ff0000f          	fence
    236c:	00000993          	li	a1,0
    2370:	00000a13          	li	a2,0
    2374:	00600e13          	li	t2,6

0000000000002378 <test_loop6>:
    2378:	000b3903          	ld	a0,0(a4)
    237c:	01390463          	beq	a0,a1,2384 <skip6>
    2380:	4850006f          	j	3004 <fail>

0000000000002384 <skip6>:
    2384:	008b0b13          	addi	a4,a4,8
    2388:	001a0a13          	addi	a2,a2,1
    238c:	ff5a16e3          	bne	a2,a3,2378 <test_loop6>
    2390:	0140006f          	j	23a4 <next6>

0000000000002394 <vtcode6>:
    2394:	00000093          	li	ra,0
    2398:	ffff8137          	lui	s0,0xffff8
    239c:	0020a1b3          	slt	s1,ra,s0
    23a0:	00005077          	stop

00000000000023a4 <next6>:
    23a4:	0040200b          	vsetcfg	4,0
    23a8:	00001ab7          	lui	a3,0x1
    23ac:	800a8a9b          	addiw	a3,a3,-2048
    23b0:	000aea8b          	vsetvl	a3,a3
    23b4:	00002937          	lui	a0,0x2
    23b8:	3e192a2b          	vf	1012(a0) # 23f4 <vtcode7>
    23bc:	00009b17          	auipc	a4,0x9
    23c0:	d24b0b13          	addi	a4,a4,-732 # b0e0 <begin_signature>
    23c4:	060b21fb          	vsd	vx3,a4
    23c8:	0ff0000f          	fence
    23cc:	00100993          	li	a1,1
    23d0:	00000a13          	li	a2,0
    23d4:	00700e13          	li	t2,7

00000000000023d8 <test_loop7>:
    23d8:	000b3903          	ld	a0,0(a4)
    23dc:	01390463          	beq	a0,a1,23e4 <skip7>
    23e0:	4250006f          	j	3004 <fail>

00000000000023e4 <skip7>:
    23e4:	008b0b13          	addi	a4,a4,8
    23e8:	001a0a13          	addi	a2,a2,1
    23ec:	ff5a16e3          	bne	a2,a3,23d8 <test_loop7>
    23f0:	0140006f          	j	2404 <next7>

00000000000023f4 <vtcode7>:
    23f4:	800000b7          	lui	ra,0x80000
    23f8:	00000113          	li	s0,0
    23fc:	0020a1b3          	slt	s1,ra,s0
    2400:	00005077          	stop

0000000000002404 <next7>:
    2404:	0040200b          	vsetcfg	4,0
    2408:	00001ab7          	lui	a3,0x1
    240c:	800a8a9b          	addiw	a3,a3,-2048
    2410:	000aea8b          	vsetvl	a3,a3
    2414:	00002937          	lui	a0,0x2
    2418:	44192a2b          	vf	1108(a0) # 2454 <vtcode8>
    241c:	00009b17          	auipc	a4,0x9
    2420:	cc4b0b13          	addi	a4,a4,-828 # b0e0 <begin_signature>
    2424:	060b21fb          	vsd	vx3,a4
    2428:	0ff0000f          	fence
    242c:	00100993          	li	a1,1
    2430:	00000a13          	li	a2,0
    2434:	00800e13          	li	t2,8

0000000000002438 <test_loop8>:
    2438:	000b3903          	ld	a0,0(a4)
    243c:	01390463          	beq	a0,a1,2444 <skip8>
    2440:	3c50006f          	j	3004 <fail>

0000000000002444 <skip8>:
    2444:	008b0b13          	addi	a4,a4,8
    2448:	001a0a13          	addi	a2,a2,1
    244c:	ff5a16e3          	bne	a2,a3,2438 <test_loop8>
    2450:	0140006f          	j	2464 <next8>

0000000000002454 <vtcode8>:
    2454:	800000b7          	lui	ra,0x80000
    2458:	ffff8137          	lui	s0,0xffff8
    245c:	0020a1b3          	slt	s1,ra,s0
    2460:	00005077          	stop

0000000000002464 <next8>:
    2464:	0040200b          	vsetcfg	4,0
    2468:	00001ab7          	lui	a3,0x1
    246c:	800a8a9b          	addiw	a3,a3,-2048
    2470:	000aea8b          	vsetvl	a3,a3
    2474:	00002937          	lui	a0,0x2
    2478:	4a192a2b          	vf	1204(a0) # 24b4 <vtcode9>
    247c:	00009b17          	auipc	a4,0x9
    2480:	c64b0b13          	addi	a4,a4,-924 # b0e0 <begin_signature>
    2484:	060b21fb          	vsd	vx3,a4
    2488:	0ff0000f          	fence
    248c:	00100993          	li	a1,1
    2490:	00000a13          	li	a2,0
    2494:	00900e13          	li	t2,9

0000000000002498 <test_loop9>:
    2498:	000b3903          	ld	a0,0(a4)
    249c:	01390463          	beq	a0,a1,24a4 <skip9>
    24a0:	3650006f          	j	3004 <fail>

00000000000024a4 <skip9>:
    24a4:	008b0b13          	addi	a4,a4,8
    24a8:	001a0a13          	addi	a2,a2,1
    24ac:	ff5a16e3          	bne	a2,a3,2498 <test_loop9>
    24b0:	0180006f          	j	24c8 <next9>

00000000000024b4 <vtcode9>:
    24b4:	00000093          	li	ra,0
    24b8:	00008137          	lui	s0,0x8
    24bc:	fff1011b          	addiw	s0,s0,-1
    24c0:	0020a1b3          	slt	s1,ra,s0
    24c4:	00005077          	stop

00000000000024c8 <next9>:
    24c8:	0040200b          	vsetcfg	4,0
    24cc:	00001ab7          	lui	a3,0x1
    24d0:	800a8a9b          	addiw	a3,a3,-2048
    24d4:	000aea8b          	vsetvl	a3,a3
    24d8:	00002937          	lui	a0,0x2
    24dc:	50192c2b          	vf	1304(a0) # 2518 <vtcode10>
    24e0:	00009b17          	auipc	a4,0x9
    24e4:	c00b0b13          	addi	a4,a4,-1024 # b0e0 <begin_signature>
    24e8:	060b21fb          	vsd	vx3,a4
    24ec:	0ff0000f          	fence
    24f0:	00000993          	li	a1,0
    24f4:	00000a13          	li	a2,0
    24f8:	00a00e13          	li	t2,10

00000000000024fc <test_loop10>:
    24fc:	000b3903          	ld	a0,0(a4)
    2500:	01390463          	beq	a0,a1,2508 <skip10>
    2504:	3010006f          	j	3004 <fail>

0000000000002508 <skip10>:
    2508:	008b0b13          	addi	a4,a4,8
    250c:	001a0a13          	addi	a2,a2,1
    2510:	ff5a16e3          	bne	a2,a3,24fc <test_loop10>
    2514:	0180006f          	j	252c <next10>

0000000000002518 <vtcode10>:
    2518:	800000b7          	lui	ra,0x80000
    251c:	fff0809b          	addiw	ra,ra,-1
    2520:	00000113          	li	s0,0
    2524:	0020a1b3          	slt	s1,ra,s0
    2528:	00005077          	stop

000000000000252c <next10>:
    252c:	0040200b          	vsetcfg	4,0
    2530:	00001ab7          	lui	a3,0x1
    2534:	800a8a9b          	addiw	a3,a3,-2048
    2538:	000aea8b          	vsetvl	a3,a3
    253c:	00002937          	lui	a0,0x2
    2540:	56192e2b          	vf	1404(a0) # 257c <vtcode11>
    2544:	00009b17          	auipc	a4,0x9
    2548:	b9cb0b13          	addi	a4,a4,-1124 # b0e0 <begin_signature>
    254c:	060b21fb          	vsd	vx3,a4
    2550:	0ff0000f          	fence
    2554:	00000993          	li	a1,0
    2558:	00000a13          	li	a2,0
    255c:	00b00e13          	li	t2,11

0000000000002560 <test_loop11>:
    2560:	000b3903          	ld	a0,0(a4)
    2564:	01390463          	beq	a0,a1,256c <skip11>
    2568:	29d0006f          	j	3004 <fail>

000000000000256c <skip11>:
    256c:	008b0b13          	addi	a4,a4,8
    2570:	001a0a13          	addi	a2,a2,1
    2574:	ff5a16e3          	bne	a2,a3,2560 <test_loop11>
    2578:	01c0006f          	j	2594 <next11>

000000000000257c <vtcode11>:
    257c:	800000b7          	lui	ra,0x80000
    2580:	fff0809b          	addiw	ra,ra,-1
    2584:	00008137          	lui	s0,0x8
    2588:	fff1011b          	addiw	s0,s0,-1
    258c:	0020a1b3          	slt	s1,ra,s0
    2590:	00005077          	stop

0000000000002594 <next11>:
    2594:	0040200b          	vsetcfg	4,0
    2598:	00001ab7          	lui	a3,0x1
    259c:	800a8a9b          	addiw	a3,a3,-2048
    25a0:	000aea8b          	vsetvl	a3,a3
    25a4:	00002937          	lui	a0,0x2
    25a8:	5e19222b          	vf	1508(a0) # 25e4 <vtcode12>
    25ac:	00009b17          	auipc	a4,0x9
    25b0:	b34b0b13          	addi	a4,a4,-1228 # b0e0 <begin_signature>
    25b4:	060b21fb          	vsd	vx3,a4
    25b8:	0ff0000f          	fence
    25bc:	00100993          	li	a1,1
    25c0:	00000a13          	li	a2,0
    25c4:	00c00e13          	li	t2,12

00000000000025c8 <test_loop12>:
    25c8:	000b3903          	ld	a0,0(a4)
    25cc:	01390463          	beq	a0,a1,25d4 <skip12>
    25d0:	2350006f          	j	3004 <fail>

00000000000025d4 <skip12>:
    25d4:	008b0b13          	addi	a4,a4,8
    25d8:	001a0a13          	addi	a2,a2,1
    25dc:	ff5a16e3          	bne	a2,a3,25c8 <test_loop12>
    25e0:	0180006f          	j	25f8 <next12>

00000000000025e4 <vtcode12>:
    25e4:	800000b7          	lui	ra,0x80000
    25e8:	00008137          	lui	s0,0x8
    25ec:	fff1011b          	addiw	s0,s0,-1
    25f0:	0020a1b3          	slt	s1,ra,s0
    25f4:	00005077          	stop

00000000000025f8 <next12>:
    25f8:	0040200b          	vsetcfg	4,0
    25fc:	00001ab7          	lui	a3,0x1
    2600:	800a8a9b          	addiw	a3,a3,-2048
    2604:	000aea8b          	vsetvl	a3,a3
    2608:	00002937          	lui	a0,0x2
    260c:	6419242b          	vf	1608(a0) # 2648 <vtcode13>
    2610:	00009b17          	auipc	a4,0x9
    2614:	ad0b0b13          	addi	a4,a4,-1328 # b0e0 <begin_signature>
    2618:	060b21fb          	vsd	vx3,a4
    261c:	0ff0000f          	fence
    2620:	00000993          	li	a1,0
    2624:	00000a13          	li	a2,0
    2628:	00d00e13          	li	t2,13

000000000000262c <test_loop13>:
    262c:	000b3903          	ld	a0,0(a4)
    2630:	01390463          	beq	a0,a1,2638 <skip13>
    2634:	1d10006f          	j	3004 <fail>

0000000000002638 <skip13>:
    2638:	008b0b13          	addi	a4,a4,8
    263c:	001a0a13          	addi	a2,a2,1
    2640:	ff5a16e3          	bne	a2,a3,262c <test_loop13>
    2644:	0180006f          	j	265c <next13>

0000000000002648 <vtcode13>:
    2648:	800000b7          	lui	ra,0x80000
    264c:	fff0809b          	addiw	ra,ra,-1
    2650:	ffff8137          	lui	s0,0xffff8
    2654:	0020a1b3          	slt	s1,ra,s0
    2658:	00005077          	stop

000000000000265c <next13>:
    265c:	0040200b          	vsetcfg	4,0
    2660:	00001ab7          	lui	a3,0x1
    2664:	800a8a9b          	addiw	a3,a3,-2048
    2668:	000aea8b          	vsetvl	a3,a3
    266c:	00002937          	lui	a0,0x2
    2670:	6a19262b          	vf	1708(a0) # 26ac <vtcode14>
    2674:	00009b17          	auipc	a4,0x9
    2678:	a6cb0b13          	addi	a4,a4,-1428 # b0e0 <begin_signature>
    267c:	060b21fb          	vsd	vx3,a4
    2680:	0ff0000f          	fence
    2684:	00000993          	li	a1,0
    2688:	00000a13          	li	a2,0
    268c:	00e00e13          	li	t2,14

0000000000002690 <test_loop14>:
    2690:	000b3903          	ld	a0,0(a4)
    2694:	01390463          	beq	a0,a1,269c <skip14>
    2698:	16d0006f          	j	3004 <fail>

000000000000269c <skip14>:
    269c:	008b0b13          	addi	a4,a4,8
    26a0:	001a0a13          	addi	a2,a2,1
    26a4:	ff5a16e3          	bne	a2,a3,2690 <test_loop14>
    26a8:	0140006f          	j	26bc <next14>

00000000000026ac <vtcode14>:
    26ac:	00000093          	li	ra,0
    26b0:	fff00113          	li	s0,-1
    26b4:	0020a1b3          	slt	s1,ra,s0
    26b8:	00005077          	stop

00000000000026bc <next14>:
    26bc:	0040200b          	vsetcfg	4,0
    26c0:	00001ab7          	lui	a3,0x1
    26c4:	800a8a9b          	addiw	a3,a3,-2048
    26c8:	000aea8b          	vsetvl	a3,a3
    26cc:	00002937          	lui	a0,0x2
    26d0:	7019262b          	vf	1804(a0) # 270c <vtcode15>
    26d4:	00009b17          	auipc	a4,0x9
    26d8:	a0cb0b13          	addi	a4,a4,-1524 # b0e0 <begin_signature>
    26dc:	060b21fb          	vsd	vx3,a4
    26e0:	0ff0000f          	fence
    26e4:	00100993          	li	a1,1
    26e8:	00000a13          	li	a2,0
    26ec:	00f00e13          	li	t2,15

00000000000026f0 <test_loop15>:
    26f0:	000b3903          	ld	a0,0(a4)
    26f4:	01390463          	beq	a0,a1,26fc <skip15>
    26f8:	10d0006f          	j	3004 <fail>

00000000000026fc <skip15>:
    26fc:	008b0b13          	addi	a4,a4,8
    2700:	001a0a13          	addi	a2,a2,1
    2704:	ff5a16e3          	bne	a2,a3,26f0 <test_loop15>
    2708:	0140006f          	j	271c <next15>

000000000000270c <vtcode15>:
    270c:	fff00093          	li	ra,-1
    2710:	00100113          	li	s0,1
    2714:	0020a1b3          	slt	s1,ra,s0
    2718:	00005077          	stop

000000000000271c <next15>:
    271c:	0040200b          	vsetcfg	4,0
    2720:	00001ab7          	lui	a3,0x1
    2724:	800a8a9b          	addiw	a3,a3,-2048
    2728:	000aea8b          	vsetvl	a3,a3
    272c:	00002937          	lui	a0,0x2
    2730:	7619262b          	vf	1900(a0) # 276c <vtcode16>
    2734:	00009b17          	auipc	a4,0x9
    2738:	9acb0b13          	addi	a4,a4,-1620 # b0e0 <begin_signature>
    273c:	060b21fb          	vsd	vx3,a4
    2740:	0ff0000f          	fence
    2744:	00000993          	li	a1,0
    2748:	00000a13          	li	a2,0
    274c:	01000e13          	li	t2,16

0000000000002750 <test_loop16>:
    2750:	000b3903          	ld	a0,0(a4)
    2754:	01390463          	beq	a0,a1,275c <skip16>
    2758:	0ad0006f          	j	3004 <fail>

000000000000275c <skip16>:
    275c:	008b0b13          	addi	a4,a4,8
    2760:	001a0a13          	addi	a2,a2,1
    2764:	ff5a16e3          	bne	a2,a3,2750 <test_loop16>
    2768:	0140006f          	j	277c <next16>

000000000000276c <vtcode16>:
    276c:	fff00093          	li	ra,-1
    2770:	fff00113          	li	s0,-1
    2774:	0020a1b3          	slt	s1,ra,s0
    2778:	00005077          	stop

000000000000277c <next16>:
    277c:	0030200b          	vsetcfg	3,0
    2780:	00001ab7          	lui	a3,0x1
    2784:	800a8a9b          	addiw	a3,a3,-2048
    2788:	000aea8b          	vsetvl	a3,a3
    278c:	00002937          	lui	a0,0x2
    2790:	7c19262b          	vf	1996(a0) # 27cc <vtcode17>
    2794:	00009b17          	auipc	a4,0x9
    2798:	94cb0b13          	addi	a4,a4,-1716 # b0e0 <begin_signature>
    279c:	060b20fb          	vsd	vx1,a4
    27a0:	0ff0000f          	fence
    27a4:	00000993          	li	a1,0
    27a8:	00000a13          	li	a2,0
    27ac:	01100e13          	li	t2,17

00000000000027b0 <test_loop17>:
    27b0:	000b3903          	ld	a0,0(a4)
    27b4:	01390463          	beq	a0,a1,27bc <skip17>
    27b8:	04d0006f          	j	3004 <fail>

00000000000027bc <skip17>:
    27bc:	008b0b13          	addi	a4,a4,8
    27c0:	001a0a13          	addi	a2,a2,1
    27c4:	ff5a16e3          	bne	a2,a3,27b0 <test_loop17>
    27c8:	0140006f          	j	27dc <next17>

00000000000027cc <vtcode17>:
    27cc:	00e00093          	li	ra,14
    27d0:	00d00113          	li	s0,13
    27d4:	0020a0b3          	slt	ra,ra,s0
    27d8:	00005077          	stop

00000000000027dc <next17>:
    27dc:	0030200b          	vsetcfg	3,0
    27e0:	00001ab7          	lui	a3,0x1
    27e4:	800a8a9b          	addiw	a3,a3,-2048
    27e8:	000aea8b          	vsetvl	a3,a3
    27ec:	00003937          	lui	a0,0x3
    27f0:	8219262b          	vf	-2004(a0) # 282c <vtcode18>
    27f4:	00009b17          	auipc	a4,0x9
    27f8:	8ecb0b13          	addi	a4,a4,-1812 # b0e0 <begin_signature>
    27fc:	060b217b          	vsd	vx2,a4
    2800:	0ff0000f          	fence
    2804:	00100993          	li	a1,1
    2808:	00000a13          	li	a2,0
    280c:	01200e13          	li	t2,18

0000000000002810 <test_loop18>:
    2810:	000b3903          	ld	a0,0(a4)
    2814:	01390463          	beq	a0,a1,281c <skip18>
    2818:	7ec0006f          	j	3004 <fail>

000000000000281c <skip18>:
    281c:	008b0b13          	addi	a4,a4,8
    2820:	001a0a13          	addi	a2,a2,1
    2824:	ff5a16e3          	bne	a2,a3,2810 <test_loop18>
    2828:	0140006f          	j	283c <next18>

000000000000282c <vtcode18>:
    282c:	00b00093          	li	ra,11
    2830:	00d00113          	li	s0,13
    2834:	0020a133          	slt	s0,ra,s0
    2838:	00005077          	stop

000000000000283c <next18>:
    283c:	0020200b          	vsetcfg	2,0
    2840:	00001ab7          	lui	a3,0x1
    2844:	800a8a9b          	addiw	a3,a3,-2048
    2848:	000aea8b          	vsetvl	a3,a3
    284c:	00003937          	lui	a0,0x3
    2850:	8819262b          	vf	-1908(a0) # 288c <vtcode19>
    2854:	00009b17          	auipc	a4,0x9
    2858:	88cb0b13          	addi	a4,a4,-1908 # b0e0 <begin_signature>
    285c:	060b20fb          	vsd	vx1,a4
    2860:	0ff0000f          	fence
    2864:	00000993          	li	a1,0
    2868:	00000a13          	li	a2,0
    286c:	01300e13          	li	t2,19

0000000000002870 <test_loop19>:
    2870:	000b3903          	ld	a0,0(a4)
    2874:	01390463          	beq	a0,a1,287c <skip19>
    2878:	78c0006f          	j	3004 <fail>

000000000000287c <skip19>:
    287c:	008b0b13          	addi	a4,a4,8
    2880:	001a0a13          	addi	a2,a2,1
    2884:	ff5a16e3          	bne	a2,a3,2870 <test_loop19>
    2888:	0100006f          	j	2898 <next19>

000000000000288c <vtcode19>:
    288c:	00d00093          	li	ra,13
    2890:	0010a0b3          	slt	ra,ra,ra
    2894:	00005077          	stop

0000000000002898 <next19>:
    2898:	0050200b          	vsetcfg	5,0
    289c:	00001ab7          	lui	a3,0x1
    28a0:	800a8a9b          	addiw	a3,a3,-2048
    28a4:	000aea8b          	vsetvl	a3,a3
    28a8:	00003937          	lui	a0,0x3
    28ac:	8e19242b          	vf	-1816(a0) # 28e8 <vtcode20>
    28b0:	00009b17          	auipc	a4,0x9
    28b4:	830b0b13          	addi	a4,a4,-2000 # b0e0 <begin_signature>
    28b8:	060b227b          	vsd	vx4,a4
    28bc:	0ff0000f          	fence
    28c0:	00100993          	li	a1,1
    28c4:	00000a13          	li	a2,0
    28c8:	01400e13          	li	t2,20

00000000000028cc <test_loop20>:
    28cc:	000b3903          	ld	a0,0(a4)
    28d0:	01390463          	beq	a0,a1,28d8 <skip20>
    28d4:	7300006f          	j	3004 <fail>

00000000000028d8 <skip20>:
    28d8:	008b0b13          	addi	a4,a4,8
    28dc:	001a0a13          	addi	a2,a2,1
    28e0:	ff5a16e3          	bne	a2,a3,28cc <test_loop20>
    28e4:	0180006f          	j	28fc <next20>

00000000000028e8 <vtcode20>:
    28e8:	00b00093          	li	ra,11
    28ec:	00d00113          	li	s0,13
    28f0:	0020a1b3          	slt	s1,ra,s0
    28f4:	00018213          	mv	s2,s1
    28f8:	00005077          	stop

00000000000028fc <next20>:
    28fc:	0050200b          	vsetcfg	5,0
    2900:	00001ab7          	lui	a3,0x1
    2904:	800a8a9b          	addiw	a3,a3,-2048
    2908:	000aea8b          	vsetvl	a3,a3
    290c:	00003937          	lui	a0,0x3
    2910:	9419262b          	vf	-1716(a0) # 294c <vtcode21>
    2914:	00008b17          	auipc	a4,0x8
    2918:	7ccb0b13          	addi	a4,a4,1996 # b0e0 <begin_signature>
    291c:	060b227b          	vsd	vx4,a4
    2920:	0ff0000f          	fence
    2924:	00000993          	li	a1,0
    2928:	00000a13          	li	a2,0
    292c:	01500e13          	li	t2,21

0000000000002930 <test_loop21>:
    2930:	000b3903          	ld	a0,0(a4)
    2934:	01390463          	beq	a0,a1,293c <skip21>
    2938:	6cc0006f          	j	3004 <fail>

000000000000293c <skip21>:
    293c:	008b0b13          	addi	a4,a4,8
    2940:	001a0a13          	addi	a2,a2,1
    2944:	ff5a16e3          	bne	a2,a3,2930 <test_loop21>
    2948:	01c0006f          	j	2964 <next21>

000000000000294c <vtcode21>:
    294c:	00e00093          	li	ra,14
    2950:	00d00113          	li	s0,13
    2954:	0020a1b3          	slt	s1,ra,s0
    2958:	00000013          	nop
    295c:	00018213          	mv	s2,s1
    2960:	00005077          	stop

0000000000002964 <next21>:
    2964:	0050200b          	vsetcfg	5,0
    2968:	00001ab7          	lui	a3,0x1
    296c:	800a8a9b          	addiw	a3,a3,-2048
    2970:	000aea8b          	vsetvl	a3,a3
    2974:	00003937          	lui	a0,0x3
    2978:	9a192a2b          	vf	-1612(a0) # 29b4 <vtcode22>
    297c:	00008b17          	auipc	a4,0x8
    2980:	764b0b13          	addi	a4,a4,1892 # b0e0 <begin_signature>
    2984:	060b227b          	vsd	vx4,a4
    2988:	0ff0000f          	fence
    298c:	00100993          	li	a1,1
    2990:	00000a13          	li	a2,0
    2994:	01600e13          	li	t2,22

0000000000002998 <test_loop22>:
    2998:	000b3903          	ld	a0,0(a4)
    299c:	01390463          	beq	a0,a1,29a4 <skip22>
    29a0:	6640006f          	j	3004 <fail>

00000000000029a4 <skip22>:
    29a4:	008b0b13          	addi	a4,a4,8
    29a8:	001a0a13          	addi	a2,a2,1
    29ac:	ff5a16e3          	bne	a2,a3,2998 <test_loop22>
    29b0:	0200006f          	j	29d0 <next22>

00000000000029b4 <vtcode22>:
    29b4:	00c00093          	li	ra,12
    29b8:	00d00113          	li	s0,13
    29bc:	0020a1b3          	slt	s1,ra,s0
    29c0:	00000013          	nop
    29c4:	00000013          	nop
    29c8:	00018213          	mv	s2,s1
    29cc:	00005077          	stop

00000000000029d0 <next22>:
    29d0:	0040200b          	vsetcfg	4,0
    29d4:	00001ab7          	lui	a3,0x1
    29d8:	800a8a9b          	addiw	a3,a3,-2048
    29dc:	000aea8b          	vsetvl	a3,a3
    29e0:	00003937          	lui	a0,0x3
    29e4:	a219202b          	vf	-1504(a0) # 2a20 <vtcode23>
    29e8:	00008b17          	auipc	a4,0x8
    29ec:	6f8b0b13          	addi	a4,a4,1784 # b0e0 <begin_signature>
    29f0:	060b21fb          	vsd	vx3,a4
    29f4:	0ff0000f          	fence
    29f8:	00000993          	li	a1,0
    29fc:	00000a13          	li	a2,0
    2a00:	01700e13          	li	t2,23

0000000000002a04 <test_loop23>:
    2a04:	000b3903          	ld	a0,0(a4)
    2a08:	01390463          	beq	a0,a1,2a10 <skip23>
    2a0c:	5f80006f          	j	3004 <fail>

0000000000002a10 <skip23>:
    2a10:	008b0b13          	addi	a4,a4,8
    2a14:	001a0a13          	addi	a2,a2,1
    2a18:	ff5a16e3          	bne	a2,a3,2a04 <test_loop23>
    2a1c:	0140006f          	j	2a30 <next23>

0000000000002a20 <vtcode23>:
    2a20:	00e00093          	li	ra,14
    2a24:	00d00113          	li	s0,13
    2a28:	0020a1b3          	slt	s1,ra,s0
    2a2c:	00005077          	stop

0000000000002a30 <next23>:
    2a30:	0040200b          	vsetcfg	4,0
    2a34:	00001ab7          	lui	a3,0x1
    2a38:	800a8a9b          	addiw	a3,a3,-2048
    2a3c:	000aea8b          	vsetvl	a3,a3
    2a40:	00003937          	lui	a0,0x3
    2a44:	a819202b          	vf	-1408(a0) # 2a80 <vtcode24>
    2a48:	00008b17          	auipc	a4,0x8
    2a4c:	698b0b13          	addi	a4,a4,1688 # b0e0 <begin_signature>
    2a50:	060b21fb          	vsd	vx3,a4
    2a54:	0ff0000f          	fence
    2a58:	00100993          	li	a1,1
    2a5c:	00000a13          	li	a2,0
    2a60:	01800e13          	li	t2,24

0000000000002a64 <test_loop24>:
    2a64:	000b3903          	ld	a0,0(a4)
    2a68:	01390463          	beq	a0,a1,2a70 <skip24>
    2a6c:	5980006f          	j	3004 <fail>

0000000000002a70 <skip24>:
    2a70:	008b0b13          	addi	a4,a4,8
    2a74:	001a0a13          	addi	a2,a2,1
    2a78:	ff5a16e3          	bne	a2,a3,2a64 <test_loop24>
    2a7c:	0180006f          	j	2a94 <next24>

0000000000002a80 <vtcode24>:
    2a80:	00b00093          	li	ra,11
    2a84:	00d00113          	li	s0,13
    2a88:	00000013          	nop
    2a8c:	0020a1b3          	slt	s1,ra,s0
    2a90:	00005077          	stop

0000000000002a94 <next24>:
    2a94:	0040200b          	vsetcfg	4,0
    2a98:	00001ab7          	lui	a3,0x1
    2a9c:	800a8a9b          	addiw	a3,a3,-2048
    2aa0:	000aea8b          	vsetvl	a3,a3
    2aa4:	00003937          	lui	a0,0x3
    2aa8:	ae19222b          	vf	-1308(a0) # 2ae4 <vtcode25>
    2aac:	00008b17          	auipc	a4,0x8
    2ab0:	634b0b13          	addi	a4,a4,1588 # b0e0 <begin_signature>
    2ab4:	060b21fb          	vsd	vx3,a4
    2ab8:	0ff0000f          	fence
    2abc:	00000993          	li	a1,0
    2ac0:	00000a13          	li	a2,0
    2ac4:	01900e13          	li	t2,25

0000000000002ac8 <test_loop25>:
    2ac8:	000b3903          	ld	a0,0(a4)
    2acc:	01390463          	beq	a0,a1,2ad4 <skip25>
    2ad0:	5340006f          	j	3004 <fail>

0000000000002ad4 <skip25>:
    2ad4:	008b0b13          	addi	a4,a4,8
    2ad8:	001a0a13          	addi	a2,a2,1
    2adc:	ff5a16e3          	bne	a2,a3,2ac8 <test_loop25>
    2ae0:	01c0006f          	j	2afc <next25>

0000000000002ae4 <vtcode25>:
    2ae4:	00f00093          	li	ra,15
    2ae8:	00d00113          	li	s0,13
    2aec:	00000013          	nop
    2af0:	00000013          	nop
    2af4:	0020a1b3          	slt	s1,ra,s0
    2af8:	00005077          	stop

0000000000002afc <next25>:
    2afc:	0040200b          	vsetcfg	4,0
    2b00:	00001ab7          	lui	a3,0x1
    2b04:	800a8a9b          	addiw	a3,a3,-2048
    2b08:	000aea8b          	vsetvl	a3,a3
    2b0c:	00003937          	lui	a0,0x3
    2b10:	b419262b          	vf	-1204(a0) # 2b4c <vtcode26>
    2b14:	00008b17          	auipc	a4,0x8
    2b18:	5ccb0b13          	addi	a4,a4,1484 # b0e0 <begin_signature>
    2b1c:	060b21fb          	vsd	vx3,a4
    2b20:	0ff0000f          	fence
    2b24:	00100993          	li	a1,1
    2b28:	00000a13          	li	a2,0
    2b2c:	01a00e13          	li	t2,26

0000000000002b30 <test_loop26>:
    2b30:	000b3903          	ld	a0,0(a4)
    2b34:	01390463          	beq	a0,a1,2b3c <skip26>
    2b38:	4cc0006f          	j	3004 <fail>

0000000000002b3c <skip26>:
    2b3c:	008b0b13          	addi	a4,a4,8
    2b40:	001a0a13          	addi	a2,a2,1
    2b44:	ff5a16e3          	bne	a2,a3,2b30 <test_loop26>
    2b48:	0180006f          	j	2b60 <next26>

0000000000002b4c <vtcode26>:
    2b4c:	00a00093          	li	ra,10
    2b50:	00000013          	nop
    2b54:	00d00113          	li	s0,13
    2b58:	0020a1b3          	slt	s1,ra,s0
    2b5c:	00005077          	stop

0000000000002b60 <next26>:
    2b60:	0040200b          	vsetcfg	4,0
    2b64:	00001ab7          	lui	a3,0x1
    2b68:	800a8a9b          	addiw	a3,a3,-2048
    2b6c:	000aea8b          	vsetvl	a3,a3
    2b70:	00003937          	lui	a0,0x3
    2b74:	ba19282b          	vf	-1104(a0) # 2bb0 <vtcode27>
    2b78:	00008b17          	auipc	a4,0x8
    2b7c:	568b0b13          	addi	a4,a4,1384 # b0e0 <begin_signature>
    2b80:	060b21fb          	vsd	vx3,a4
    2b84:	0ff0000f          	fence
    2b88:	00000993          	li	a1,0
    2b8c:	00000a13          	li	a2,0
    2b90:	01b00e13          	li	t2,27

0000000000002b94 <test_loop27>:
    2b94:	000b3903          	ld	a0,0(a4)
    2b98:	01390463          	beq	a0,a1,2ba0 <skip27>
    2b9c:	4680006f          	j	3004 <fail>

0000000000002ba0 <skip27>:
    2ba0:	008b0b13          	addi	a4,a4,8
    2ba4:	001a0a13          	addi	a2,a2,1
    2ba8:	ff5a16e3          	bne	a2,a3,2b94 <test_loop27>
    2bac:	01c0006f          	j	2bc8 <next27>

0000000000002bb0 <vtcode27>:
    2bb0:	01000093          	li	ra,16
    2bb4:	00000013          	nop
    2bb8:	00d00113          	li	s0,13
    2bbc:	00000013          	nop
    2bc0:	0020a1b3          	slt	s1,ra,s0
    2bc4:	00005077          	stop

0000000000002bc8 <next27>:
    2bc8:	0040200b          	vsetcfg	4,0
    2bcc:	00001ab7          	lui	a3,0x1
    2bd0:	800a8a9b          	addiw	a3,a3,-2048
    2bd4:	000aea8b          	vsetvl	a3,a3
    2bd8:	00003937          	lui	a0,0x3
    2bdc:	c0192c2b          	vf	-1000(a0) # 2c18 <vtcode28>
    2be0:	00008b17          	auipc	a4,0x8
    2be4:	500b0b13          	addi	a4,a4,1280 # b0e0 <begin_signature>
    2be8:	060b21fb          	vsd	vx3,a4
    2bec:	0ff0000f          	fence
    2bf0:	00100993          	li	a1,1
    2bf4:	00000a13          	li	a2,0
    2bf8:	01c00e13          	li	t2,28

0000000000002bfc <test_loop28>:
    2bfc:	000b3903          	ld	a0,0(a4)
    2c00:	01390463          	beq	a0,a1,2c08 <skip28>
    2c04:	4000006f          	j	3004 <fail>

0000000000002c08 <skip28>:
    2c08:	008b0b13          	addi	a4,a4,8
    2c0c:	001a0a13          	addi	a2,a2,1
    2c10:	ff5a16e3          	bne	a2,a3,2bfc <test_loop28>
    2c14:	01c0006f          	j	2c30 <next28>

0000000000002c18 <vtcode28>:
    2c18:	00900093          	li	ra,9
    2c1c:	00000013          	nop
    2c20:	00000013          	nop
    2c24:	00d00113          	li	s0,13
    2c28:	0020a1b3          	slt	s1,ra,s0
    2c2c:	00005077          	stop

0000000000002c30 <next28>:
    2c30:	0040200b          	vsetcfg	4,0
    2c34:	00001ab7          	lui	a3,0x1
    2c38:	800a8a9b          	addiw	a3,a3,-2048
    2c3c:	000aea8b          	vsetvl	a3,a3
    2c40:	00003937          	lui	a0,0x3
    2c44:	c819202b          	vf	-896(a0) # 2c80 <vtcode29>
    2c48:	00008b17          	auipc	a4,0x8
    2c4c:	498b0b13          	addi	a4,a4,1176 # b0e0 <begin_signature>
    2c50:	060b21fb          	vsd	vx3,a4
    2c54:	0ff0000f          	fence
    2c58:	00000993          	li	a1,0
    2c5c:	00000a13          	li	a2,0
    2c60:	01d00e13          	li	t2,29

0000000000002c64 <test_loop29>:
    2c64:	000b3903          	ld	a0,0(a4)
    2c68:	01390463          	beq	a0,a1,2c70 <skip29>
    2c6c:	3980006f          	j	3004 <fail>

0000000000002c70 <skip29>:
    2c70:	008b0b13          	addi	a4,a4,8
    2c74:	001a0a13          	addi	a2,a2,1
    2c78:	ff5a16e3          	bne	a2,a3,2c64 <test_loop29>
    2c7c:	0140006f          	j	2c90 <next29>

0000000000002c80 <vtcode29>:
    2c80:	00d00113          	li	s0,13
    2c84:	01100093          	li	ra,17
    2c88:	0020a1b3          	slt	s1,ra,s0
    2c8c:	00005077          	stop

0000000000002c90 <next29>:
    2c90:	0040200b          	vsetcfg	4,0
    2c94:	00001ab7          	lui	a3,0x1
    2c98:	800a8a9b          	addiw	a3,a3,-2048
    2c9c:	000aea8b          	vsetvl	a3,a3
    2ca0:	00003937          	lui	a0,0x3
    2ca4:	ce19202b          	vf	-800(a0) # 2ce0 <vtcode30>
    2ca8:	00008b17          	auipc	a4,0x8
    2cac:	438b0b13          	addi	a4,a4,1080 # b0e0 <begin_signature>
    2cb0:	060b21fb          	vsd	vx3,a4
    2cb4:	0ff0000f          	fence
    2cb8:	00100993          	li	a1,1
    2cbc:	00000a13          	li	a2,0
    2cc0:	01e00e13          	li	t2,30

0000000000002cc4 <test_loop30>:
    2cc4:	000b3903          	ld	a0,0(a4)
    2cc8:	01390463          	beq	a0,a1,2cd0 <skip30>
    2ccc:	3380006f          	j	3004 <fail>

0000000000002cd0 <skip30>:
    2cd0:	008b0b13          	addi	a4,a4,8
    2cd4:	001a0a13          	addi	a2,a2,1
    2cd8:	ff5a16e3          	bne	a2,a3,2cc4 <test_loop30>
    2cdc:	0180006f          	j	2cf4 <next30>

0000000000002ce0 <vtcode30>:
    2ce0:	00d00113          	li	s0,13
    2ce4:	00800093          	li	ra,8
    2ce8:	00000013          	nop
    2cec:	0020a1b3          	slt	s1,ra,s0
    2cf0:	00005077          	stop

0000000000002cf4 <next30>:
    2cf4:	0040200b          	vsetcfg	4,0
    2cf8:	00001ab7          	lui	a3,0x1
    2cfc:	800a8a9b          	addiw	a3,a3,-2048
    2d00:	000aea8b          	vsetvl	a3,a3
    2d04:	00003937          	lui	a0,0x3
    2d08:	d419222b          	vf	-700(a0) # 2d44 <vtcode31>
    2d0c:	00008b17          	auipc	a4,0x8
    2d10:	3d4b0b13          	addi	a4,a4,980 # b0e0 <begin_signature>
    2d14:	060b21fb          	vsd	vx3,a4
    2d18:	0ff0000f          	fence
    2d1c:	00000993          	li	a1,0
    2d20:	00000a13          	li	a2,0
    2d24:	01f00e13          	li	t2,31

0000000000002d28 <test_loop31>:
    2d28:	000b3903          	ld	a0,0(a4)
    2d2c:	01390463          	beq	a0,a1,2d34 <skip31>
    2d30:	2d40006f          	j	3004 <fail>

0000000000002d34 <skip31>:
    2d34:	008b0b13          	addi	a4,a4,8
    2d38:	001a0a13          	addi	a2,a2,1
    2d3c:	ff5a16e3          	bne	a2,a3,2d28 <test_loop31>
    2d40:	01c0006f          	j	2d5c <next31>

0000000000002d44 <vtcode31>:
    2d44:	00d00113          	li	s0,13
    2d48:	01200093          	li	ra,18
    2d4c:	00000013          	nop
    2d50:	00000013          	nop
    2d54:	0020a1b3          	slt	s1,ra,s0
    2d58:	00005077          	stop

0000000000002d5c <next31>:
    2d5c:	0040200b          	vsetcfg	4,0
    2d60:	00001ab7          	lui	a3,0x1
    2d64:	800a8a9b          	addiw	a3,a3,-2048
    2d68:	000aea8b          	vsetvl	a3,a3
    2d6c:	00003937          	lui	a0,0x3
    2d70:	da19262b          	vf	-596(a0) # 2dac <vtcode32>
    2d74:	00008b17          	auipc	a4,0x8
    2d78:	36cb0b13          	addi	a4,a4,876 # b0e0 <begin_signature>
    2d7c:	060b21fb          	vsd	vx3,a4
    2d80:	0ff0000f          	fence
    2d84:	00100993          	li	a1,1
    2d88:	00000a13          	li	a2,0
    2d8c:	02000e13          	li	t2,32

0000000000002d90 <test_loop32>:
    2d90:	000b3903          	ld	a0,0(a4)
    2d94:	01390463          	beq	a0,a1,2d9c <skip32>
    2d98:	26c0006f          	j	3004 <fail>

0000000000002d9c <skip32>:
    2d9c:	008b0b13          	addi	a4,a4,8
    2da0:	001a0a13          	addi	a2,a2,1
    2da4:	ff5a16e3          	bne	a2,a3,2d90 <test_loop32>
    2da8:	0180006f          	j	2dc0 <next32>

0000000000002dac <vtcode32>:
    2dac:	00d00113          	li	s0,13
    2db0:	00000013          	nop
    2db4:	00700093          	li	ra,7
    2db8:	0020a1b3          	slt	s1,ra,s0
    2dbc:	00005077          	stop

0000000000002dc0 <next32>:
    2dc0:	0040200b          	vsetcfg	4,0
    2dc4:	00001ab7          	lui	a3,0x1
    2dc8:	800a8a9b          	addiw	a3,a3,-2048
    2dcc:	000aea8b          	vsetvl	a3,a3
    2dd0:	00003937          	lui	a0,0x3
    2dd4:	e019282b          	vf	-496(a0) # 2e10 <vtcode33>
    2dd8:	00008b17          	auipc	a4,0x8
    2ddc:	308b0b13          	addi	a4,a4,776 # b0e0 <begin_signature>
    2de0:	060b21fb          	vsd	vx3,a4
    2de4:	0ff0000f          	fence
    2de8:	00000993          	li	a1,0
    2dec:	00000a13          	li	a2,0
    2df0:	02100e13          	li	t2,33

0000000000002df4 <test_loop33>:
    2df4:	000b3903          	ld	a0,0(a4)
    2df8:	01390463          	beq	a0,a1,2e00 <skip33>
    2dfc:	2080006f          	j	3004 <fail>

0000000000002e00 <skip33>:
    2e00:	008b0b13          	addi	a4,a4,8
    2e04:	001a0a13          	addi	a2,a2,1
    2e08:	ff5a16e3          	bne	a2,a3,2df4 <test_loop33>
    2e0c:	01c0006f          	j	2e28 <next33>

0000000000002e10 <vtcode33>:
    2e10:	00d00113          	li	s0,13
    2e14:	00000013          	nop
    2e18:	01300093          	li	ra,19
    2e1c:	00000013          	nop
    2e20:	0020a1b3          	slt	s1,ra,s0
    2e24:	00005077          	stop

0000000000002e28 <next33>:
    2e28:	0040200b          	vsetcfg	4,0
    2e2c:	00001ab7          	lui	a3,0x1
    2e30:	800a8a9b          	addiw	a3,a3,-2048
    2e34:	000aea8b          	vsetvl	a3,a3
    2e38:	00003937          	lui	a0,0x3
    2e3c:	e6192c2b          	vf	-392(a0) # 2e78 <vtcode34>
    2e40:	00008b17          	auipc	a4,0x8
    2e44:	2a0b0b13          	addi	a4,a4,672 # b0e0 <begin_signature>
    2e48:	060b21fb          	vsd	vx3,a4
    2e4c:	0ff0000f          	fence
    2e50:	00100993          	li	a1,1
    2e54:	00000a13          	li	a2,0
    2e58:	02200e13          	li	t2,34

0000000000002e5c <test_loop34>:
    2e5c:	000b3903          	ld	a0,0(a4)
    2e60:	01390463          	beq	a0,a1,2e68 <skip34>
    2e64:	1a00006f          	j	3004 <fail>

0000000000002e68 <skip34>:
    2e68:	008b0b13          	addi	a4,a4,8
    2e6c:	001a0a13          	addi	a2,a2,1
    2e70:	ff5a16e3          	bne	a2,a3,2e5c <test_loop34>
    2e74:	01c0006f          	j	2e90 <next34>

0000000000002e78 <vtcode34>:
    2e78:	00d00113          	li	s0,13
    2e7c:	00000013          	nop
    2e80:	00000013          	nop
    2e84:	00600093          	li	ra,6
    2e88:	0020a1b3          	slt	s1,ra,s0
    2e8c:	00005077          	stop

0000000000002e90 <next34>:
    2e90:	0030200b          	vsetcfg	3,0
    2e94:	00001ab7          	lui	a3,0x1
    2e98:	800a8a9b          	addiw	a3,a3,-2048
    2e9c:	000aea8b          	vsetvl	a3,a3
    2ea0:	00003937          	lui	a0,0x3
    2ea4:	ee19202b          	vf	-288(a0) # 2ee0 <vtcode35>
    2ea8:	00008b17          	auipc	a4,0x8
    2eac:	238b0b13          	addi	a4,a4,568 # b0e0 <begin_signature>
    2eb0:	060b217b          	vsd	vx2,a4
    2eb4:	0ff0000f          	fence
    2eb8:	00000993          	li	a1,0
    2ebc:	00000a13          	li	a2,0
    2ec0:	02300e13          	li	t2,35

0000000000002ec4 <test_loop35>:
    2ec4:	000b3903          	ld	a0,0(a4)
    2ec8:	01390463          	beq	a0,a1,2ed0 <skip35>
    2ecc:	1380006f          	j	3004 <fail>

0000000000002ed0 <skip35>:
    2ed0:	008b0b13          	addi	a4,a4,8
    2ed4:	001a0a13          	addi	a2,a2,1
    2ed8:	ff5a16e3          	bne	a2,a3,2ec4 <test_loop35>
    2edc:	0100006f          	j	2eec <next35>

0000000000002ee0 <vtcode35>:
    2ee0:	fff00093          	li	ra,-1
    2ee4:	00102133          	sgtz	s0,ra
    2ee8:	00005077          	stop

0000000000002eec <next35>:
    2eec:	0030200b          	vsetcfg	3,0
    2ef0:	00001ab7          	lui	a3,0x1
    2ef4:	800a8a9b          	addiw	a3,a3,-2048
    2ef8:	000aea8b          	vsetvl	a3,a3
    2efc:	00003937          	lui	a0,0x3
    2f00:	f2192e2b          	vf	-196(a0) # 2f3c <vtcode36>
    2f04:	00008b17          	auipc	a4,0x8
    2f08:	1dcb0b13          	addi	a4,a4,476 # b0e0 <begin_signature>
    2f0c:	060b217b          	vsd	vx2,a4
    2f10:	0ff0000f          	fence
    2f14:	00100993          	li	a1,1
    2f18:	00000a13          	li	a2,0
    2f1c:	02400e13          	li	t2,36

0000000000002f20 <test_loop36>:
    2f20:	000b3903          	ld	a0,0(a4)
    2f24:	01390463          	beq	a0,a1,2f2c <skip36>
    2f28:	0dc0006f          	j	3004 <fail>

0000000000002f2c <skip36>:
    2f2c:	008b0b13          	addi	a4,a4,8
    2f30:	001a0a13          	addi	a2,a2,1
    2f34:	ff5a16e3          	bne	a2,a3,2f20 <test_loop36>
    2f38:	0100006f          	j	2f48 <next36>

0000000000002f3c <vtcode36>:
    2f3c:	fff00093          	li	ra,-1
    2f40:	0000a133          	sltz	s0,ra
    2f44:	00005077          	stop

0000000000002f48 <next36>:
    2f48:	0020200b          	vsetcfg	2,0
    2f4c:	00001ab7          	lui	a3,0x1
    2f50:	800a8a9b          	addiw	a3,a3,-2048
    2f54:	000aea8b          	vsetvl	a3,a3
    2f58:	00003937          	lui	a0,0x3
    2f5c:	f8192c2b          	vf	-104(a0) # 2f98 <vtcode37>
    2f60:	00008b17          	auipc	a4,0x8
    2f64:	180b0b13          	addi	a4,a4,384 # b0e0 <begin_signature>
    2f68:	060b20fb          	vsd	vx1,a4
    2f6c:	0ff0000f          	fence
    2f70:	00000993          	li	a1,0
    2f74:	00000a13          	li	a2,0
    2f78:	02500e13          	li	t2,37

0000000000002f7c <test_loop37>:
    2f7c:	000b3903          	ld	a0,0(a4)
    2f80:	01390463          	beq	a0,a1,2f88 <skip37>
    2f84:	0800006f          	j	3004 <fail>

0000000000002f88 <skip37>:
    2f88:	008b0b13          	addi	a4,a4,8
    2f8c:	001a0a13          	addi	a2,a2,1
    2f90:	ff5a16e3          	bne	a2,a3,2f7c <test_loop37>
    2f94:	00c0006f          	j	2fa0 <next37>

0000000000002f98 <vtcode37>:
    2f98:	000020b3          	sltz	ra,zero
    2f9c:	00005077          	stop

0000000000002fa0 <next37>:
    2fa0:	0030200b          	vsetcfg	3,0
    2fa4:	00001ab7          	lui	a3,0x1
    2fa8:	800a8a9b          	addiw	a3,a3,-2048
    2fac:	000aea8b          	vsetvl	a3,a3
    2fb0:	00003937          	lui	a0,0x3
    2fb4:	fe19282b          	vf	-16(a0) # 2ff0 <vtcode38>
    2fb8:	00008b17          	auipc	a4,0x8
    2fbc:	128b0b13          	addi	a4,a4,296 # b0e0 <begin_signature>
    2fc0:	060b207b          	vsd	vx0,a4
    2fc4:	0ff0000f          	fence
    2fc8:	00000993          	li	a1,0
    2fcc:	00000a13          	li	a2,0
    2fd0:	02600e13          	li	t2,38

0000000000002fd4 <test_loop38>:
    2fd4:	000b3903          	ld	a0,0(a4)
    2fd8:	01390463          	beq	a0,a1,2fe0 <skip38>
    2fdc:	0280006f          	j	3004 <fail>

0000000000002fe0 <skip38>:
    2fe0:	008b0b13          	addi	a4,a4,8
    2fe4:	001a0a13          	addi	a2,a2,1
    2fe8:	ff5a16e3          	bne	a2,a3,2fd4 <test_loop38>
    2fec:	0140006f          	j	3000 <next38>

0000000000002ff0 <vtcode38>:
    2ff0:	01000093          	li	ra,16
    2ff4:	01e00113          	li	s0,30
    2ff8:	0020a033          	slt	zero,ra,s0
    2ffc:	00005077          	stop

0000000000003000 <next38>:
    3000:	01c01663          	bne	zero,t2,300c <pass>

0000000000003004 <fail>:
    3004:	00200d93          	li	t1,2
    3008:	00000073          	scall

000000000000300c <pass>:
    300c:	00100d93          	li	t1,1
    3010:	00000073          	scall
    3014:	00000013          	nop
    3018:	00000013          	nop
    301c:	00000013          	nop
