
rv64ui-p-mulhsu:     file format elf64-littleriscv


Disassembly of section .text:

0000000000002000 <_start>:
    2000:	50b02973          	csrr	a0,hartid
    2004:	00091063          	bnez	a0,2004 <_start+0x4>

0000000000002008 <test_2>:
    2008:	00000093          	li	ra,0
    200c:	00000113          	li	s0,0
    2010:	0220a1b3          	mulhsu	s1,ra,s0
    2014:	00000e93          	li	t3,0
    2018:	00200e13          	li	t2,2
    201c:	47d19063          	bne	s1,t3,247c <fail>

0000000000002020 <test_3>:
    2020:	00100093          	li	ra,1
    2024:	00100113          	li	s0,1
    2028:	0220a1b3          	mulhsu	s1,ra,s0
    202c:	00000e93          	li	t3,0
    2030:	00300e13          	li	t2,3
    2034:	45d19463          	bne	s1,t3,247c <fail>

0000000000002038 <test_4>:
    2038:	00300093          	li	ra,3
    203c:	00700113          	li	s0,7
    2040:	0220a1b3          	mulhsu	s1,ra,s0
    2044:	00000e93          	li	t3,0
    2048:	00400e13          	li	t2,4
    204c:	43d19863          	bne	s1,t3,247c <fail>

0000000000002050 <test_5>:
    2050:	00000093          	li	ra,0
    2054:	ffff8137          	lui	s0,0xffff8
    2058:	0220a1b3          	mulhsu	s1,ra,s0
    205c:	00000e93          	li	t3,0
    2060:	00500e13          	li	t2,5
    2064:	41d19c63          	bne	s1,t3,247c <fail>

0000000000002068 <test_6>:
    2068:	800000b7          	lui	ra,0x80000
    206c:	00000113          	li	s0,0
    2070:	0220a1b3          	mulhsu	s1,ra,s0
    2074:	00000e93          	li	t3,0
    2078:	00600e13          	li	t2,6
    207c:	41d19063          	bne	s1,t3,247c <fail>

0000000000002080 <test_7>:
    2080:	800000b7          	lui	ra,0x80000
    2084:	ffff8137          	lui	s0,0xffff8
    2088:	0220a1b3          	mulhsu	s1,ra,s0
    208c:	80000eb7          	lui	t3,0x80000
    2090:	00700e13          	li	t2,7
    2094:	3fd19463          	bne	s1,t3,247c <fail>

0000000000002098 <test_8>:
    2098:	01a000b7          	lui	ra,0x1a00
    209c:	00b09093          	slli	ra,ra,0xb
    20a0:	01600137          	lui	s0,0x1600
    20a4:	00b11113          	slli	s0,s0,0xb
    20a8:	0220a0b3          	mulhsu	ra,ra,s0
    20ac:	08f00e93          	li	t3,143
    20b0:	00800e13          	li	t2,8
    20b4:	3dd09463          	bne	ra,t3,247c <fail>

00000000000020b8 <test_9>:
    20b8:	01c000b7          	lui	ra,0x1c00
    20bc:	00b09093          	slli	ra,ra,0xb
    20c0:	01600137          	lui	s0,0x1600
    20c4:	00b11113          	slli	s0,s0,0xb
    20c8:	0220a133          	mulhsu	s0,ra,s0
    20cc:	09a00e93          	li	t3,154
    20d0:	00900e13          	li	t2,9
    20d4:	3bd11463          	bne	s0,t3,247c <fail>

00000000000020d8 <test_10>:
    20d8:	01a000b7          	lui	ra,0x1a00
    20dc:	00b09093          	slli	ra,ra,0xb
    20e0:	0210a0b3          	mulhsu	ra,ra,ra
    20e4:	0a900e93          	li	t3,169
    20e8:	00a00e13          	li	t2,10
    20ec:	39d09863          	bne	ra,t3,247c <fail>

00000000000020f0 <test_11>:
    20f0:	00000213          	li	s2,0
    20f4:	01a000b7          	lui	ra,0x1a00
    20f8:	00b09093          	slli	ra,ra,0xb
    20fc:	01600137          	lui	s0,0x1600
    2100:	00b11113          	slli	s0,s0,0xb
    2104:	0220a1b3          	mulhsu	s1,ra,s0
    2108:	00018313          	mv	s4,s1
    210c:	00120213          	addi	s2,s2,1
    2110:	00200293          	li	s3,2
    2114:	fe5210e3          	bne	s2,s3,20f4 <test_11+0x4>
    2118:	08f00e93          	li	t3,143
    211c:	00b00e13          	li	t2,11
    2120:	35d31e63          	bne	s4,t3,247c <fail>

0000000000002124 <test_12>:
    2124:	00000213          	li	s2,0
    2128:	01c000b7          	lui	ra,0x1c00
    212c:	00b09093          	slli	ra,ra,0xb
    2130:	01600137          	lui	s0,0x1600
    2134:	00b11113          	slli	s0,s0,0xb
    2138:	0220a1b3          	mulhsu	s1,ra,s0
    213c:	00000013          	nop
    2140:	00018313          	mv	s4,s1
    2144:	00120213          	addi	s2,s2,1
    2148:	00200293          	li	s3,2
    214c:	fc521ee3          	bne	s2,s3,2128 <test_12+0x4>
    2150:	09a00e93          	li	t3,154
    2154:	00c00e13          	li	t2,12
    2158:	33d31263          	bne	s4,t3,247c <fail>

000000000000215c <test_13>:
    215c:	00000213          	li	s2,0
    2160:	01e000b7          	lui	ra,0x1e00
    2164:	00b09093          	slli	ra,ra,0xb
    2168:	01600137          	lui	s0,0x1600
    216c:	00b11113          	slli	s0,s0,0xb
    2170:	0220a1b3          	mulhsu	s1,ra,s0
    2174:	00000013          	nop
    2178:	00000013          	nop
    217c:	00018313          	mv	s4,s1
    2180:	00120213          	addi	s2,s2,1
    2184:	00200293          	li	s3,2
    2188:	fc521ce3          	bne	s2,s3,2160 <test_13+0x4>
    218c:	0a500e93          	li	t3,165
    2190:	00d00e13          	li	t2,13
    2194:	2fd31463          	bne	s4,t3,247c <fail>

0000000000002198 <test_14>:
    2198:	00000213          	li	s2,0
    219c:	01a000b7          	lui	ra,0x1a00
    21a0:	00b09093          	slli	ra,ra,0xb
    21a4:	01600137          	lui	s0,0x1600
    21a8:	00b11113          	slli	s0,s0,0xb
    21ac:	0220a1b3          	mulhsu	s1,ra,s0
    21b0:	00120213          	addi	s2,s2,1
    21b4:	00200293          	li	s3,2
    21b8:	fe5212e3          	bne	s2,s3,219c <test_14+0x4>
    21bc:	08f00e93          	li	t3,143
    21c0:	00e00e13          	li	t2,14
    21c4:	2bd19c63          	bne	s1,t3,247c <fail>

00000000000021c8 <test_15>:
    21c8:	00000213          	li	s2,0
    21cc:	01c000b7          	lui	ra,0x1c00
    21d0:	00b09093          	slli	ra,ra,0xb
    21d4:	01600137          	lui	s0,0x1600
    21d8:	00b11113          	slli	s0,s0,0xb
    21dc:	00000013          	nop
    21e0:	0220a1b3          	mulhsu	s1,ra,s0
    21e4:	00120213          	addi	s2,s2,1
    21e8:	00200293          	li	s3,2
    21ec:	fe5210e3          	bne	s2,s3,21cc <test_15+0x4>
    21f0:	09a00e93          	li	t3,154
    21f4:	00f00e13          	li	t2,15
    21f8:	29d19263          	bne	s1,t3,247c <fail>

00000000000021fc <test_16>:
    21fc:	00000213          	li	s2,0
    2200:	01e000b7          	lui	ra,0x1e00
    2204:	00b09093          	slli	ra,ra,0xb
    2208:	01600137          	lui	s0,0x1600
    220c:	00b11113          	slli	s0,s0,0xb
    2210:	00000013          	nop
    2214:	00000013          	nop
    2218:	0220a1b3          	mulhsu	s1,ra,s0
    221c:	00120213          	addi	s2,s2,1
    2220:	00200293          	li	s3,2
    2224:	fc521ee3          	bne	s2,s3,2200 <test_16+0x4>
    2228:	0a500e93          	li	t3,165
    222c:	01000e13          	li	t2,16
    2230:	25d19663          	bne	s1,t3,247c <fail>

0000000000002234 <test_17>:
    2234:	00000213          	li	s2,0
    2238:	01a000b7          	lui	ra,0x1a00
    223c:	00b09093          	slli	ra,ra,0xb
    2240:	00000013          	nop
    2244:	01600137          	lui	s0,0x1600
    2248:	00b11113          	slli	s0,s0,0xb
    224c:	0220a1b3          	mulhsu	s1,ra,s0
    2250:	00120213          	addi	s2,s2,1
    2254:	00200293          	li	s3,2
    2258:	fe5210e3          	bne	s2,s3,2238 <test_17+0x4>
    225c:	08f00e93          	li	t3,143
    2260:	01100e13          	li	t2,17
    2264:	21d19c63          	bne	s1,t3,247c <fail>

0000000000002268 <test_18>:
    2268:	00000213          	li	s2,0
    226c:	01c000b7          	lui	ra,0x1c00
    2270:	00b09093          	slli	ra,ra,0xb
    2274:	00000013          	nop
    2278:	01600137          	lui	s0,0x1600
    227c:	00b11113          	slli	s0,s0,0xb
    2280:	00000013          	nop
    2284:	0220a1b3          	mulhsu	s1,ra,s0
    2288:	00120213          	addi	s2,s2,1
    228c:	00200293          	li	s3,2
    2290:	fc521ee3          	bne	s2,s3,226c <test_18+0x4>
    2294:	09a00e93          	li	t3,154
    2298:	01200e13          	li	t2,18
    229c:	1fd19063          	bne	s1,t3,247c <fail>

00000000000022a0 <test_19>:
    22a0:	00000213          	li	s2,0
    22a4:	01e000b7          	lui	ra,0x1e00
    22a8:	00b09093          	slli	ra,ra,0xb
    22ac:	00000013          	nop
    22b0:	00000013          	nop
    22b4:	01600137          	lui	s0,0x1600
    22b8:	00b11113          	slli	s0,s0,0xb
    22bc:	0220a1b3          	mulhsu	s1,ra,s0
    22c0:	00120213          	addi	s2,s2,1
    22c4:	00200293          	li	s3,2
    22c8:	fc521ee3          	bne	s2,s3,22a4 <test_19+0x4>
    22cc:	0a500e93          	li	t3,165
    22d0:	01300e13          	li	t2,19
    22d4:	1bd19463          	bne	s1,t3,247c <fail>

00000000000022d8 <test_20>:
    22d8:	00000213          	li	s2,0
    22dc:	01600137          	lui	s0,0x1600
    22e0:	00b11113          	slli	s0,s0,0xb
    22e4:	01a000b7          	lui	ra,0x1a00
    22e8:	00b09093          	slli	ra,ra,0xb
    22ec:	0220a1b3          	mulhsu	s1,ra,s0
    22f0:	00120213          	addi	s2,s2,1
    22f4:	00200293          	li	s3,2
    22f8:	fe5212e3          	bne	s2,s3,22dc <test_20+0x4>
    22fc:	08f00e93          	li	t3,143
    2300:	01400e13          	li	t2,20
    2304:	17d19c63          	bne	s1,t3,247c <fail>

0000000000002308 <test_21>:
    2308:	00000213          	li	s2,0
    230c:	01600137          	lui	s0,0x1600
    2310:	00b11113          	slli	s0,s0,0xb
    2314:	01c000b7          	lui	ra,0x1c00
    2318:	00b09093          	slli	ra,ra,0xb
    231c:	00000013          	nop
    2320:	0220a1b3          	mulhsu	s1,ra,s0
    2324:	00120213          	addi	s2,s2,1
    2328:	00200293          	li	s3,2
    232c:	fe5210e3          	bne	s2,s3,230c <test_21+0x4>
    2330:	09a00e93          	li	t3,154
    2334:	01500e13          	li	t2,21
    2338:	15d19263          	bne	s1,t3,247c <fail>

000000000000233c <test_22>:
    233c:	00000213          	li	s2,0
    2340:	01600137          	lui	s0,0x1600
    2344:	00b11113          	slli	s0,s0,0xb
    2348:	01e000b7          	lui	ra,0x1e00
    234c:	00b09093          	slli	ra,ra,0xb
    2350:	00000013          	nop
    2354:	00000013          	nop
    2358:	0220a1b3          	mulhsu	s1,ra,s0
    235c:	00120213          	addi	s2,s2,1
    2360:	00200293          	li	s3,2
    2364:	fc521ee3          	bne	s2,s3,2340 <test_22+0x4>
    2368:	0a500e93          	li	t3,165
    236c:	01600e13          	li	t2,22
    2370:	11d19663          	bne	s1,t3,247c <fail>

0000000000002374 <test_23>:
    2374:	00000213          	li	s2,0
    2378:	01600137          	lui	s0,0x1600
    237c:	00b11113          	slli	s0,s0,0xb
    2380:	00000013          	nop
    2384:	01a000b7          	lui	ra,0x1a00
    2388:	00b09093          	slli	ra,ra,0xb
    238c:	0220a1b3          	mulhsu	s1,ra,s0
    2390:	00120213          	addi	s2,s2,1
    2394:	00200293          	li	s3,2
    2398:	fe5210e3          	bne	s2,s3,2378 <test_23+0x4>
    239c:	08f00e93          	li	t3,143
    23a0:	01700e13          	li	t2,23
    23a4:	0dd19c63          	bne	s1,t3,247c <fail>

00000000000023a8 <test_24>:
    23a8:	00000213          	li	s2,0
    23ac:	01600137          	lui	s0,0x1600
    23b0:	00b11113          	slli	s0,s0,0xb
    23b4:	00000013          	nop
    23b8:	01c000b7          	lui	ra,0x1c00
    23bc:	00b09093          	slli	ra,ra,0xb
    23c0:	00000013          	nop
    23c4:	0220a1b3          	mulhsu	s1,ra,s0
    23c8:	00120213          	addi	s2,s2,1
    23cc:	00200293          	li	s3,2
    23d0:	fc521ee3          	bne	s2,s3,23ac <test_24+0x4>
    23d4:	09a00e93          	li	t3,154
    23d8:	01800e13          	li	t2,24
    23dc:	0bd19063          	bne	s1,t3,247c <fail>

00000000000023e0 <test_25>:
    23e0:	00000213          	li	s2,0
    23e4:	01600137          	lui	s0,0x1600
    23e8:	00b11113          	slli	s0,s0,0xb
    23ec:	00000013          	nop
    23f0:	00000013          	nop
    23f4:	01e000b7          	lui	ra,0x1e00
    23f8:	00b09093          	slli	ra,ra,0xb
    23fc:	0220a1b3          	mulhsu	s1,ra,s0
    2400:	00120213          	addi	s2,s2,1
    2404:	00200293          	li	s3,2
    2408:	fc521ee3          	bne	s2,s3,23e4 <test_25+0x4>
    240c:	0a500e93          	li	t3,165
    2410:	01900e13          	li	t2,25
    2414:	07d19463          	bne	s1,t3,247c <fail>

0000000000002418 <test_26>:
    2418:	03e000b7          	lui	ra,0x3e00
    241c:	00b09093          	slli	ra,ra,0xb
    2420:	02102133          	mulhsu	s0,zero,ra
    2424:	00000e93          	li	t3,0
    2428:	01a00e13          	li	t2,26
    242c:	05d11863          	bne	s0,t3,247c <fail>

0000000000002430 <test_27>:
    2430:	040000b7          	lui	ra,0x4000
    2434:	00b09093          	slli	ra,ra,0xb
    2438:	0200a133          	mulhsu	s0,ra,zero
    243c:	00000e93          	li	t3,0
    2440:	01b00e13          	li	t2,27
    2444:	03d11c63          	bne	s0,t3,247c <fail>

0000000000002448 <test_28>:
    2448:	020020b3          	mulhsu	ra,zero,zero
    244c:	00000e93          	li	t3,0
    2450:	01c00e13          	li	t2,28
    2454:	03d09463          	bne	ra,t3,247c <fail>

0000000000002458 <test_29>:
    2458:	042000b7          	lui	ra,0x4200
    245c:	00b09093          	slli	ra,ra,0xb
    2460:	04400137          	lui	s0,0x4400
    2464:	00b11113          	slli	s0,s0,0xb
    2468:	0220a033          	mulhsu	zero,ra,s0
    246c:	00000e93          	li	t3,0
    2470:	01d00e13          	li	t2,29
    2474:	01d01463          	bne	zero,t3,247c <fail>
    2478:	01c01e63          	bne	zero,t2,2494 <pass>

000000000000247c <fail>:
    247c:	0ff0000f          	fence
    2480:	000e0863          	beqz	t2,2490 <fail+0x14>
    2484:	001e1e13          	slli	t2,t2,0x1
    2488:	001e6e13          	ori	t2,t2,1
    248c:	51ee1073          	csrw	tohost,t2
    2490:	00000063          	b	2490 <fail+0x14>

0000000000002494 <pass>:
    2494:	0ff0000f          	fence
    2498:	51e0d073          	csrwi	tohost,1
    249c:	00000063          	b	249c <pass+0x8>
