
rv64ui-p-amomin_d:     file format elf64-littleriscv


Disassembly of section .text:

0000000000002000 <_start>:
    2000:	50b02973          	csrr	a0,hartid
    2004:	00091063          	bnez	a0,2004 <_start+0x4>

0000000000002008 <test_2>:
    2008:	80000937          	lui	a0,0x80000
    200c:	80000993          	li	a1,-2048
    2010:	00000a97          	auipc	a3,0x0
    2014:	080a8a93          	addi	a3,a3,128 # 2090 <begin_signature>
    2018:	012ab023          	sd	a0,0(a3)
    201c:	813abb2f          	amomin.d	a4,a1,(a3)
    2020:	80000eb7          	lui	t3,0x80000
    2024:	00200e13          	li	t2,2
    2028:	05db1063          	bne	a4,t3,2068 <fail>

000000000000202c <test_3>:
    202c:	000abb83          	ld	a5,0(a3)
    2030:	80000eb7          	lui	t3,0x80000
    2034:	00300e13          	li	t2,3
    2038:	03db9863          	bne	a5,t3,2068 <fail>

000000000000203c <test_4>:
    203c:	fff00993          	li	a1,-1
    2040:	000ab023          	sd	zero,0(a3)
    2044:	813abb2f          	amomin.d	a4,a1,(a3)
    2048:	00000e93          	li	t3,0
    204c:	00400e13          	li	t2,4
    2050:	01db1c63          	bne	a4,t3,2068 <fail>

0000000000002054 <test_5>:
    2054:	000abb83          	ld	a5,0(a3)
    2058:	fff00e93          	li	t3,-1
    205c:	00500e13          	li	t2,5
    2060:	01db9463          	bne	a5,t3,2068 <fail>
    2064:	01c01e63          	bne	zero,t2,2080 <pass>

0000000000002068 <fail>:
    2068:	0ff0000f          	fence
    206c:	000e0863          	beqz	t2,207c <fail+0x14>
    2070:	001e1e13          	slli	t2,t2,0x1
    2074:	001e6e13          	ori	t2,t2,1
    2078:	51ee1073          	csrw	tohost,t2
    207c:	00000063          	b	207c <fail+0x14>

0000000000002080 <pass>:
    2080:	0ff0000f          	fence
    2084:	51e0d073          	csrwi	tohost,1
    2088:	00000063          	b	2088 <pass+0x8>
    208c:	00000013          	nop
