
rv64ui-p-mulw:     file format elf64-littleriscv


Disassembly of section .text:

0000000000002000 <_start>:
    2000:	50b02973          	csrr	a0,hartid
    2004:	00091063          	bnez	a0,2004 <_start+0x4>

0000000000002008 <test_2>:
    2008:	00000093          	li	ra,0
    200c:	00000113          	li	s0,0
    2010:	022081bb          	mulw	s1,ra,s0
    2014:	00000e93          	li	t3,0
    2018:	00200e13          	li	t2,2
    201c:	3dd19263          	bne	s1,t3,23e0 <fail>

0000000000002020 <test_3>:
    2020:	00100093          	li	ra,1
    2024:	00100113          	li	s0,1
    2028:	022081bb          	mulw	s1,ra,s0
    202c:	00100e93          	li	t3,1
    2030:	00300e13          	li	t2,3
    2034:	3bd19663          	bne	s1,t3,23e0 <fail>

0000000000002038 <test_4>:
    2038:	00300093          	li	ra,3
    203c:	00700113          	li	s0,7
    2040:	022081bb          	mulw	s1,ra,s0
    2044:	01500e93          	li	t3,21
    2048:	00400e13          	li	t2,4
    204c:	39d19a63          	bne	s1,t3,23e0 <fail>

0000000000002050 <test_5>:
    2050:	00000093          	li	ra,0
    2054:	ffff8137          	lui	s0,0xffff8
    2058:	022081bb          	mulw	s1,ra,s0
    205c:	00000e93          	li	t3,0
    2060:	00500e13          	li	t2,5
    2064:	37d19e63          	bne	s1,t3,23e0 <fail>

0000000000002068 <test_6>:
    2068:	800000b7          	lui	ra,0x80000
    206c:	00000113          	li	s0,0
    2070:	022081bb          	mulw	s1,ra,s0
    2074:	00000e93          	li	t3,0
    2078:	00600e13          	li	t2,6
    207c:	37d19263          	bne	s1,t3,23e0 <fail>

0000000000002080 <test_7>:
    2080:	800000b7          	lui	ra,0x80000
    2084:	ffff8137          	lui	s0,0xffff8
    2088:	022081bb          	mulw	s1,ra,s0
    208c:	00000e93          	li	t3,0
    2090:	00700e13          	li	t2,7
    2094:	35d19663          	bne	s1,t3,23e0 <fail>

0000000000002098 <test_8>:
    2098:	00d00093          	li	ra,13
    209c:	00b00113          	li	s0,11
    20a0:	022080bb          	mulw	ra,ra,s0
    20a4:	08f00e93          	li	t3,143
    20a8:	00800e13          	li	t2,8
    20ac:	33d09a63          	bne	ra,t3,23e0 <fail>

00000000000020b0 <test_9>:
    20b0:	00e00093          	li	ra,14
    20b4:	00b00113          	li	s0,11
    20b8:	0220813b          	mulw	s0,ra,s0
    20bc:	09a00e93          	li	t3,154
    20c0:	00900e13          	li	t2,9
    20c4:	31d11e63          	bne	s0,t3,23e0 <fail>

00000000000020c8 <test_10>:
    20c8:	00d00093          	li	ra,13
    20cc:	021080bb          	mulw	ra,ra,ra
    20d0:	0a900e93          	li	t3,169
    20d4:	00a00e13          	li	t2,10
    20d8:	31d09463          	bne	ra,t3,23e0 <fail>

00000000000020dc <test_11>:
    20dc:	00000213          	li	s2,0
    20e0:	00d00093          	li	ra,13
    20e4:	00b00113          	li	s0,11
    20e8:	022081bb          	mulw	s1,ra,s0
    20ec:	00018313          	mv	s4,s1
    20f0:	00120213          	addi	s2,s2,1
    20f4:	00200293          	li	s3,2
    20f8:	fe5214e3          	bne	s2,s3,20e0 <test_11+0x4>
    20fc:	08f00e93          	li	t3,143
    2100:	00b00e13          	li	t2,11
    2104:	2dd31e63          	bne	s4,t3,23e0 <fail>

0000000000002108 <test_12>:
    2108:	00000213          	li	s2,0
    210c:	00e00093          	li	ra,14
    2110:	00b00113          	li	s0,11
    2114:	022081bb          	mulw	s1,ra,s0
    2118:	00000013          	nop
    211c:	00018313          	mv	s4,s1
    2120:	00120213          	addi	s2,s2,1
    2124:	00200293          	li	s3,2
    2128:	fe5212e3          	bne	s2,s3,210c <test_12+0x4>
    212c:	09a00e93          	li	t3,154
    2130:	00c00e13          	li	t2,12
    2134:	2bd31663          	bne	s4,t3,23e0 <fail>

0000000000002138 <test_13>:
    2138:	00000213          	li	s2,0
    213c:	00f00093          	li	ra,15
    2140:	00b00113          	li	s0,11
    2144:	022081bb          	mulw	s1,ra,s0
    2148:	00000013          	nop
    214c:	00000013          	nop
    2150:	00018313          	mv	s4,s1
    2154:	00120213          	addi	s2,s2,1
    2158:	00200293          	li	s3,2
    215c:	fe5210e3          	bne	s2,s3,213c <test_13+0x4>
    2160:	0a500e93          	li	t3,165
    2164:	00d00e13          	li	t2,13
    2168:	27d31c63          	bne	s4,t3,23e0 <fail>

000000000000216c <test_14>:
    216c:	00000213          	li	s2,0
    2170:	00d00093          	li	ra,13
    2174:	00b00113          	li	s0,11
    2178:	022081bb          	mulw	s1,ra,s0
    217c:	00120213          	addi	s2,s2,1
    2180:	00200293          	li	s3,2
    2184:	fe5216e3          	bne	s2,s3,2170 <test_14+0x4>
    2188:	08f00e93          	li	t3,143
    218c:	00e00e13          	li	t2,14
    2190:	25d19863          	bne	s1,t3,23e0 <fail>

0000000000002194 <test_15>:
    2194:	00000213          	li	s2,0
    2198:	00e00093          	li	ra,14
    219c:	00b00113          	li	s0,11
    21a0:	00000013          	nop
    21a4:	022081bb          	mulw	s1,ra,s0
    21a8:	00120213          	addi	s2,s2,1
    21ac:	00200293          	li	s3,2
    21b0:	fe5214e3          	bne	s2,s3,2198 <test_15+0x4>
    21b4:	09a00e93          	li	t3,154
    21b8:	00f00e13          	li	t2,15
    21bc:	23d19263          	bne	s1,t3,23e0 <fail>

00000000000021c0 <test_16>:
    21c0:	00000213          	li	s2,0
    21c4:	00f00093          	li	ra,15
    21c8:	00b00113          	li	s0,11
    21cc:	00000013          	nop
    21d0:	00000013          	nop
    21d4:	022081bb          	mulw	s1,ra,s0
    21d8:	00120213          	addi	s2,s2,1
    21dc:	00200293          	li	s3,2
    21e0:	fe5212e3          	bne	s2,s3,21c4 <test_16+0x4>
    21e4:	0a500e93          	li	t3,165
    21e8:	01000e13          	li	t2,16
    21ec:	1fd19a63          	bne	s1,t3,23e0 <fail>

00000000000021f0 <test_17>:
    21f0:	00000213          	li	s2,0
    21f4:	00d00093          	li	ra,13
    21f8:	00000013          	nop
    21fc:	00b00113          	li	s0,11
    2200:	022081bb          	mulw	s1,ra,s0
    2204:	00120213          	addi	s2,s2,1
    2208:	00200293          	li	s3,2
    220c:	fe5214e3          	bne	s2,s3,21f4 <test_17+0x4>
    2210:	08f00e93          	li	t3,143
    2214:	01100e13          	li	t2,17
    2218:	1dd19463          	bne	s1,t3,23e0 <fail>

000000000000221c <test_18>:
    221c:	00000213          	li	s2,0
    2220:	00e00093          	li	ra,14
    2224:	00000013          	nop
    2228:	00b00113          	li	s0,11
    222c:	00000013          	nop
    2230:	022081bb          	mulw	s1,ra,s0
    2234:	00120213          	addi	s2,s2,1
    2238:	00200293          	li	s3,2
    223c:	fe5212e3          	bne	s2,s3,2220 <test_18+0x4>
    2240:	09a00e93          	li	t3,154
    2244:	01200e13          	li	t2,18
    2248:	19d19c63          	bne	s1,t3,23e0 <fail>

000000000000224c <test_19>:
    224c:	00000213          	li	s2,0
    2250:	00f00093          	li	ra,15
    2254:	00000013          	nop
    2258:	00000013          	nop
    225c:	00b00113          	li	s0,11
    2260:	022081bb          	mulw	s1,ra,s0
    2264:	00120213          	addi	s2,s2,1
    2268:	00200293          	li	s3,2
    226c:	fe5212e3          	bne	s2,s3,2250 <test_19+0x4>
    2270:	0a500e93          	li	t3,165
    2274:	01300e13          	li	t2,19
    2278:	17d19463          	bne	s1,t3,23e0 <fail>

000000000000227c <test_20>:
    227c:	00000213          	li	s2,0
    2280:	00b00113          	li	s0,11
    2284:	00d00093          	li	ra,13
    2288:	022081bb          	mulw	s1,ra,s0
    228c:	00120213          	addi	s2,s2,1
    2290:	00200293          	li	s3,2
    2294:	fe5216e3          	bne	s2,s3,2280 <test_20+0x4>
    2298:	08f00e93          	li	t3,143
    229c:	01400e13          	li	t2,20
    22a0:	15d19063          	bne	s1,t3,23e0 <fail>

00000000000022a4 <test_21>:
    22a4:	00000213          	li	s2,0
    22a8:	00b00113          	li	s0,11
    22ac:	00e00093          	li	ra,14
    22b0:	00000013          	nop
    22b4:	022081bb          	mulw	s1,ra,s0
    22b8:	00120213          	addi	s2,s2,1
    22bc:	00200293          	li	s3,2
    22c0:	fe5214e3          	bne	s2,s3,22a8 <test_21+0x4>
    22c4:	09a00e93          	li	t3,154
    22c8:	01500e13          	li	t2,21
    22cc:	11d19a63          	bne	s1,t3,23e0 <fail>

00000000000022d0 <test_22>:
    22d0:	00000213          	li	s2,0
    22d4:	00b00113          	li	s0,11
    22d8:	00f00093          	li	ra,15
    22dc:	00000013          	nop
    22e0:	00000013          	nop
    22e4:	022081bb          	mulw	s1,ra,s0
    22e8:	00120213          	addi	s2,s2,1
    22ec:	00200293          	li	s3,2
    22f0:	fe5212e3          	bne	s2,s3,22d4 <test_22+0x4>
    22f4:	0a500e93          	li	t3,165
    22f8:	01600e13          	li	t2,22
    22fc:	0fd19263          	bne	s1,t3,23e0 <fail>

0000000000002300 <test_23>:
    2300:	00000213          	li	s2,0
    2304:	00b00113          	li	s0,11
    2308:	00000013          	nop
    230c:	00d00093          	li	ra,13
    2310:	022081bb          	mulw	s1,ra,s0
    2314:	00120213          	addi	s2,s2,1
    2318:	00200293          	li	s3,2
    231c:	fe5214e3          	bne	s2,s3,2304 <test_23+0x4>
    2320:	08f00e93          	li	t3,143
    2324:	01700e13          	li	t2,23
    2328:	0bd19c63          	bne	s1,t3,23e0 <fail>

000000000000232c <test_24>:
    232c:	00000213          	li	s2,0
    2330:	00b00113          	li	s0,11
    2334:	00000013          	nop
    2338:	00e00093          	li	ra,14
    233c:	00000013          	nop
    2340:	022081bb          	mulw	s1,ra,s0
    2344:	00120213          	addi	s2,s2,1
    2348:	00200293          	li	s3,2
    234c:	fe5212e3          	bne	s2,s3,2330 <test_24+0x4>
    2350:	09a00e93          	li	t3,154
    2354:	01800e13          	li	t2,24
    2358:	09d19463          	bne	s1,t3,23e0 <fail>

000000000000235c <test_25>:
    235c:	00000213          	li	s2,0
    2360:	00b00113          	li	s0,11
    2364:	00000013          	nop
    2368:	00000013          	nop
    236c:	00f00093          	li	ra,15
    2370:	022081bb          	mulw	s1,ra,s0
    2374:	00120213          	addi	s2,s2,1
    2378:	00200293          	li	s3,2
    237c:	fe5212e3          	bne	s2,s3,2360 <test_25+0x4>
    2380:	0a500e93          	li	t3,165
    2384:	01900e13          	li	t2,25
    2388:	05d19c63          	bne	s1,t3,23e0 <fail>

000000000000238c <test_26>:
    238c:	01f00093          	li	ra,31
    2390:	0210013b          	mulw	s0,zero,ra
    2394:	00000e93          	li	t3,0
    2398:	01a00e13          	li	t2,26
    239c:	05d11263          	bne	s0,t3,23e0 <fail>

00000000000023a0 <test_27>:
    23a0:	02000093          	li	ra,32
    23a4:	0200813b          	mulw	s0,ra,zero
    23a8:	00000e93          	li	t3,0
    23ac:	01b00e13          	li	t2,27
    23b0:	03d11863          	bne	s0,t3,23e0 <fail>

00000000000023b4 <test_28>:
    23b4:	020000bb          	mulw	ra,zero,zero
    23b8:	00000e93          	li	t3,0
    23bc:	01c00e13          	li	t2,28
    23c0:	03d09063          	bne	ra,t3,23e0 <fail>

00000000000023c4 <test_29>:
    23c4:	02100093          	li	ra,33
    23c8:	02200113          	li	s0,34
    23cc:	0220803b          	mulw	zero,ra,s0
    23d0:	00000e93          	li	t3,0
    23d4:	01d00e13          	li	t2,29
    23d8:	01d01463          	bne	zero,t3,23e0 <fail>
    23dc:	01c01e63          	bne	zero,t2,23f8 <pass>

00000000000023e0 <fail>:
    23e0:	0ff0000f          	fence
    23e4:	000e0863          	beqz	t2,23f4 <fail+0x14>
    23e8:	001e1e13          	slli	t2,t2,0x1
    23ec:	001e6e13          	ori	t2,t2,1
    23f0:	51ee1073          	csrw	tohost,t2
    23f4:	00000063          	b	23f4 <fail+0x14>

00000000000023f8 <pass>:
    23f8:	0ff0000f          	fence
    23fc:	51e0d073          	csrwi	tohost,1
    2400:	00000063          	b	2400 <pass+0x8>
    2404:	00000013          	nop
    2408:	00000013          	nop
    240c:	00000013          	nop
