
rv64ui-p-jal:     file format elf64-littleriscv


Disassembly of section .text:

0000000000002000 <_start>:
    2000:	50b02973          	csrr	a0,hartid
    2004:	00091063          	bnez	a0,2004 <_start+0x4>

0000000000002008 <test_2>:
    2008:	00200e13          	li	t2,2
    200c:	00000093          	li	ra,0

0000000000002010 <linkaddr_2>:
    2010:	010000ef          	jal	2020 <target_2>
    2014:	00000013          	nop
    2018:	00000013          	nop
    201c:	0440006f          	j	2060 <fail>

0000000000002020 <target_2>:
    2020:	00000117          	auipc	s0,0x0
    2024:	ff010113          	addi	s0,s0,-16 # 2010 <linkaddr_2>
    2028:	00410113          	addi	s0,s0,4
    202c:	02111a63          	bne	s0,ra,2060 <fail>

0000000000002030 <test_3>:
    2030:	00100113          	li	s0,1
    2034:	014000ef          	jal	2048 <test_3+0x18>
    2038:	00110113          	addi	s0,s0,1
    203c:	00110113          	addi	s0,s0,1
    2040:	00110113          	addi	s0,s0,1
    2044:	00110113          	addi	s0,s0,1
    2048:	00110113          	addi	s0,s0,1
    204c:	00110113          	addi	s0,s0,1
    2050:	00300e93          	li	t3,3
    2054:	00300e13          	li	t2,3
    2058:	01d11463          	bne	s0,t3,2060 <fail>
    205c:	01c01e63          	bne	zero,t2,2078 <pass>

0000000000002060 <fail>:
    2060:	0ff0000f          	fence
    2064:	000e0863          	beqz	t2,2074 <fail+0x14>
    2068:	001e1e13          	slli	t2,t2,0x1
    206c:	001e6e13          	ori	t2,t2,1
    2070:	51ee1073          	csrw	tohost,t2
    2074:	00000063          	b	2074 <fail+0x14>

0000000000002078 <pass>:
    2078:	0ff0000f          	fence
    207c:	51e0d073          	csrwi	tohost,1
    2080:	00000063          	b	2080 <pass+0x8>
    2084:	00000013          	nop
    2088:	00000013          	nop
    208c:	00000013          	nop
