
rv64ui-p-mulhu:     file format elf64-littleriscv


Disassembly of section .text:

0000000000002000 <_start>:
    2000:	50b02973          	csrr	a0,hartid
    2004:	00091063          	bnez	a0,2004 <_start+0x4>

0000000000002008 <test_2>:
    2008:	00000093          	li	ra,0
    200c:	00000113          	li	s0,0
    2010:	0220b1b3          	mulhu	s1,ra,s0
    2014:	00000e93          	li	t3,0
    2018:	00200e13          	li	t2,2
    201c:	4fd19063          	bne	s1,t3,24fc <fail>

0000000000002020 <test_3>:
    2020:	00100093          	li	ra,1
    2024:	00100113          	li	s0,1
    2028:	0220b1b3          	mulhu	s1,ra,s0
    202c:	00000e93          	li	t3,0
    2030:	00300e13          	li	t2,3
    2034:	4dd19463          	bne	s1,t3,24fc <fail>

0000000000002038 <test_4>:
    2038:	00300093          	li	ra,3
    203c:	00700113          	li	s0,7
    2040:	0220b1b3          	mulhu	s1,ra,s0
    2044:	00000e93          	li	t3,0
    2048:	00400e13          	li	t2,4
    204c:	4bd19863          	bne	s1,t3,24fc <fail>

0000000000002050 <test_5>:
    2050:	00000093          	li	ra,0
    2054:	ffff8137          	lui	s0,0xffff8
    2058:	0220b1b3          	mulhu	s1,ra,s0
    205c:	00000e93          	li	t3,0
    2060:	00500e13          	li	t2,5
    2064:	49d19c63          	bne	s1,t3,24fc <fail>

0000000000002068 <test_6>:
    2068:	800000b7          	lui	ra,0x80000
    206c:	00000113          	li	s0,0
    2070:	0220b1b3          	mulhu	s1,ra,s0
    2074:	00000e93          	li	t3,0
    2078:	00600e13          	li	t2,6
    207c:	49d19063          	bne	s1,t3,24fc <fail>

0000000000002080 <test_7>:
    2080:	800000b7          	lui	ra,0x80000
    2084:	ffff8137          	lui	s0,0xffff8
    2088:	0220b1b3          	mulhu	s1,ra,s0
    208c:	fff00eb7          	lui	t3,0xfff00
    2090:	ff0e8e9b          	addiw	t3,t3,-16
    2094:	00be9e93          	slli	t3,t3,0xb
    2098:	00700e13          	li	t2,7
    209c:	47d19063          	bne	s1,t3,24fc <fail>

00000000000020a0 <test_30>:
    20a0:	d55550b7          	lui	ra,0xd5555
    20a4:	5550809b          	addiw	ra,ra,1365
    20a8:	00b09093          	slli	ra,ra,0xb
    20ac:	2aa08093          	addi	ra,ra,682 # ffffffffd55552aa <begin_signature+0xffffffffd5552d8a>
    20b0:	00b09093          	slli	ra,ra,0xb
    20b4:	55508093          	addi	ra,ra,1365
    20b8:	00b09093          	slli	ra,ra,0xb
    20bc:	2ab08093          	addi	ra,ra,683
    20c0:	00030137          	lui	s0,0x30
    20c4:	e7d1011b          	addiw	s0,s0,-387
    20c8:	0220b1b3          	mulhu	s1,ra,s0
    20cc:	00020eb7          	lui	t3,0x20
    20d0:	efee8e9b          	addiw	t3,t3,-258
    20d4:	01e00e13          	li	t2,30
    20d8:	43d19263          	bne	s1,t3,24fc <fail>

00000000000020dc <test_31>:
    20dc:	000300b7          	lui	ra,0x30
    20e0:	e7d0809b          	addiw	ra,ra,-387
    20e4:	d5555137          	lui	s0,0xd5555
    20e8:	5551011b          	addiw	s0,s0,1365
    20ec:	00b11113          	slli	s0,s0,0xb
    20f0:	2aa10113          	addi	s0,s0,682 # ffffffffd55552aa <begin_signature+0xffffffffd5552d8a>
    20f4:	00b11113          	slli	s0,s0,0xb
    20f8:	55510113          	addi	s0,s0,1365
    20fc:	00b11113          	slli	s0,s0,0xb
    2100:	2ab10113          	addi	s0,s0,683
    2104:	0220b1b3          	mulhu	s1,ra,s0
    2108:	00020eb7          	lui	t3,0x20
    210c:	efee8e9b          	addiw	t3,t3,-258
    2110:	01f00e13          	li	t2,31
    2114:	3fd19463          	bne	s1,t3,24fc <fail>

0000000000002118 <test_8>:
    2118:	01a000b7          	lui	ra,0x1a00
    211c:	00b09093          	slli	ra,ra,0xb
    2120:	01600137          	lui	s0,0x1600
    2124:	00b11113          	slli	s0,s0,0xb
    2128:	0220b0b3          	mulhu	ra,ra,s0
    212c:	08f00e93          	li	t3,143
    2130:	00800e13          	li	t2,8
    2134:	3dd09463          	bne	ra,t3,24fc <fail>

0000000000002138 <test_9>:
    2138:	01c000b7          	lui	ra,0x1c00
    213c:	00b09093          	slli	ra,ra,0xb
    2140:	01600137          	lui	s0,0x1600
    2144:	00b11113          	slli	s0,s0,0xb
    2148:	0220b133          	mulhu	s0,ra,s0
    214c:	09a00e93          	li	t3,154
    2150:	00900e13          	li	t2,9
    2154:	3bd11463          	bne	s0,t3,24fc <fail>

0000000000002158 <test_10>:
    2158:	01a000b7          	lui	ra,0x1a00
    215c:	00b09093          	slli	ra,ra,0xb
    2160:	0210b0b3          	mulhu	ra,ra,ra
    2164:	0a900e93          	li	t3,169
    2168:	00a00e13          	li	t2,10
    216c:	39d09863          	bne	ra,t3,24fc <fail>

0000000000002170 <test_11>:
    2170:	00000213          	li	s2,0
    2174:	01a000b7          	lui	ra,0x1a00
    2178:	00b09093          	slli	ra,ra,0xb
    217c:	01600137          	lui	s0,0x1600
    2180:	00b11113          	slli	s0,s0,0xb
    2184:	0220b1b3          	mulhu	s1,ra,s0
    2188:	00018313          	mv	s4,s1
    218c:	00120213          	addi	s2,s2,1
    2190:	00200293          	li	s3,2
    2194:	fe5210e3          	bne	s2,s3,2174 <test_11+0x4>
    2198:	08f00e93          	li	t3,143
    219c:	00b00e13          	li	t2,11
    21a0:	35d31e63          	bne	s4,t3,24fc <fail>

00000000000021a4 <test_12>:
    21a4:	00000213          	li	s2,0
    21a8:	01c000b7          	lui	ra,0x1c00
    21ac:	00b09093          	slli	ra,ra,0xb
    21b0:	01600137          	lui	s0,0x1600
    21b4:	00b11113          	slli	s0,s0,0xb
    21b8:	0220b1b3          	mulhu	s1,ra,s0
    21bc:	00000013          	nop
    21c0:	00018313          	mv	s4,s1
    21c4:	00120213          	addi	s2,s2,1
    21c8:	00200293          	li	s3,2
    21cc:	fc521ee3          	bne	s2,s3,21a8 <test_12+0x4>
    21d0:	09a00e93          	li	t3,154
    21d4:	00c00e13          	li	t2,12
    21d8:	33d31263          	bne	s4,t3,24fc <fail>

00000000000021dc <test_13>:
    21dc:	00000213          	li	s2,0
    21e0:	01e000b7          	lui	ra,0x1e00
    21e4:	00b09093          	slli	ra,ra,0xb
    21e8:	01600137          	lui	s0,0x1600
    21ec:	00b11113          	slli	s0,s0,0xb
    21f0:	0220b1b3          	mulhu	s1,ra,s0
    21f4:	00000013          	nop
    21f8:	00000013          	nop
    21fc:	00018313          	mv	s4,s1
    2200:	00120213          	addi	s2,s2,1
    2204:	00200293          	li	s3,2
    2208:	fc521ce3          	bne	s2,s3,21e0 <test_13+0x4>
    220c:	0a500e93          	li	t3,165
    2210:	00d00e13          	li	t2,13
    2214:	2fd31463          	bne	s4,t3,24fc <fail>

0000000000002218 <test_14>:
    2218:	00000213          	li	s2,0
    221c:	01a000b7          	lui	ra,0x1a00
    2220:	00b09093          	slli	ra,ra,0xb
    2224:	01600137          	lui	s0,0x1600
    2228:	00b11113          	slli	s0,s0,0xb
    222c:	0220b1b3          	mulhu	s1,ra,s0
    2230:	00120213          	addi	s2,s2,1
    2234:	00200293          	li	s3,2
    2238:	fe5212e3          	bne	s2,s3,221c <test_14+0x4>
    223c:	08f00e93          	li	t3,143
    2240:	00e00e13          	li	t2,14
    2244:	2bd19c63          	bne	s1,t3,24fc <fail>

0000000000002248 <test_15>:
    2248:	00000213          	li	s2,0
    224c:	01c000b7          	lui	ra,0x1c00
    2250:	00b09093          	slli	ra,ra,0xb
    2254:	01600137          	lui	s0,0x1600
    2258:	00b11113          	slli	s0,s0,0xb
    225c:	00000013          	nop
    2260:	0220b1b3          	mulhu	s1,ra,s0
    2264:	00120213          	addi	s2,s2,1
    2268:	00200293          	li	s3,2
    226c:	fe5210e3          	bne	s2,s3,224c <test_15+0x4>
    2270:	09a00e93          	li	t3,154
    2274:	00f00e13          	li	t2,15
    2278:	29d19263          	bne	s1,t3,24fc <fail>

000000000000227c <test_16>:
    227c:	00000213          	li	s2,0
    2280:	01e000b7          	lui	ra,0x1e00
    2284:	00b09093          	slli	ra,ra,0xb
    2288:	01600137          	lui	s0,0x1600
    228c:	00b11113          	slli	s0,s0,0xb
    2290:	00000013          	nop
    2294:	00000013          	nop
    2298:	0220b1b3          	mulhu	s1,ra,s0
    229c:	00120213          	addi	s2,s2,1
    22a0:	00200293          	li	s3,2
    22a4:	fc521ee3          	bne	s2,s3,2280 <test_16+0x4>
    22a8:	0a500e93          	li	t3,165
    22ac:	01000e13          	li	t2,16
    22b0:	25d19663          	bne	s1,t3,24fc <fail>

00000000000022b4 <test_17>:
    22b4:	00000213          	li	s2,0
    22b8:	01a000b7          	lui	ra,0x1a00
    22bc:	00b09093          	slli	ra,ra,0xb
    22c0:	00000013          	nop
    22c4:	01600137          	lui	s0,0x1600
    22c8:	00b11113          	slli	s0,s0,0xb
    22cc:	0220b1b3          	mulhu	s1,ra,s0
    22d0:	00120213          	addi	s2,s2,1
    22d4:	00200293          	li	s3,2
    22d8:	fe5210e3          	bne	s2,s3,22b8 <test_17+0x4>
    22dc:	08f00e93          	li	t3,143
    22e0:	01100e13          	li	t2,17
    22e4:	21d19c63          	bne	s1,t3,24fc <fail>

00000000000022e8 <test_18>:
    22e8:	00000213          	li	s2,0
    22ec:	01c000b7          	lui	ra,0x1c00
    22f0:	00b09093          	slli	ra,ra,0xb
    22f4:	00000013          	nop
    22f8:	01600137          	lui	s0,0x1600
    22fc:	00b11113          	slli	s0,s0,0xb
    2300:	00000013          	nop
    2304:	0220b1b3          	mulhu	s1,ra,s0
    2308:	00120213          	addi	s2,s2,1
    230c:	00200293          	li	s3,2
    2310:	fc521ee3          	bne	s2,s3,22ec <test_18+0x4>
    2314:	09a00e93          	li	t3,154
    2318:	01200e13          	li	t2,18
    231c:	1fd19063          	bne	s1,t3,24fc <fail>

0000000000002320 <test_19>:
    2320:	00000213          	li	s2,0
    2324:	01e000b7          	lui	ra,0x1e00
    2328:	00b09093          	slli	ra,ra,0xb
    232c:	00000013          	nop
    2330:	00000013          	nop
    2334:	01600137          	lui	s0,0x1600
    2338:	00b11113          	slli	s0,s0,0xb
    233c:	0220b1b3          	mulhu	s1,ra,s0
    2340:	00120213          	addi	s2,s2,1
    2344:	00200293          	li	s3,2
    2348:	fc521ee3          	bne	s2,s3,2324 <test_19+0x4>
    234c:	0a500e93          	li	t3,165
    2350:	01300e13          	li	t2,19
    2354:	1bd19463          	bne	s1,t3,24fc <fail>

0000000000002358 <test_20>:
    2358:	00000213          	li	s2,0
    235c:	01600137          	lui	s0,0x1600
    2360:	00b11113          	slli	s0,s0,0xb
    2364:	01a000b7          	lui	ra,0x1a00
    2368:	00b09093          	slli	ra,ra,0xb
    236c:	0220b1b3          	mulhu	s1,ra,s0
    2370:	00120213          	addi	s2,s2,1
    2374:	00200293          	li	s3,2
    2378:	fe5212e3          	bne	s2,s3,235c <test_20+0x4>
    237c:	08f00e93          	li	t3,143
    2380:	01400e13          	li	t2,20
    2384:	17d19c63          	bne	s1,t3,24fc <fail>

0000000000002388 <test_21>:
    2388:	00000213          	li	s2,0
    238c:	01600137          	lui	s0,0x1600
    2390:	00b11113          	slli	s0,s0,0xb
    2394:	01c000b7          	lui	ra,0x1c00
    2398:	00b09093          	slli	ra,ra,0xb
    239c:	00000013          	nop
    23a0:	0220b1b3          	mulhu	s1,ra,s0
    23a4:	00120213          	addi	s2,s2,1
    23a8:	00200293          	li	s3,2
    23ac:	fe5210e3          	bne	s2,s3,238c <test_21+0x4>
    23b0:	09a00e93          	li	t3,154
    23b4:	01500e13          	li	t2,21
    23b8:	15d19263          	bne	s1,t3,24fc <fail>

00000000000023bc <test_22>:
    23bc:	00000213          	li	s2,0
    23c0:	01600137          	lui	s0,0x1600
    23c4:	00b11113          	slli	s0,s0,0xb
    23c8:	01e000b7          	lui	ra,0x1e00
    23cc:	00b09093          	slli	ra,ra,0xb
    23d0:	00000013          	nop
    23d4:	00000013          	nop
    23d8:	0220b1b3          	mulhu	s1,ra,s0
    23dc:	00120213          	addi	s2,s2,1
    23e0:	00200293          	li	s3,2
    23e4:	fc521ee3          	bne	s2,s3,23c0 <test_22+0x4>
    23e8:	0a500e93          	li	t3,165
    23ec:	01600e13          	li	t2,22
    23f0:	11d19663          	bne	s1,t3,24fc <fail>

00000000000023f4 <test_23>:
    23f4:	00000213          	li	s2,0
    23f8:	01600137          	lui	s0,0x1600
    23fc:	00b11113          	slli	s0,s0,0xb
    2400:	00000013          	nop
    2404:	01a000b7          	lui	ra,0x1a00
    2408:	00b09093          	slli	ra,ra,0xb
    240c:	0220b1b3          	mulhu	s1,ra,s0
    2410:	00120213          	addi	s2,s2,1
    2414:	00200293          	li	s3,2
    2418:	fe5210e3          	bne	s2,s3,23f8 <test_23+0x4>
    241c:	08f00e93          	li	t3,143
    2420:	01700e13          	li	t2,23
    2424:	0dd19c63          	bne	s1,t3,24fc <fail>

0000000000002428 <test_24>:
    2428:	00000213          	li	s2,0
    242c:	01600137          	lui	s0,0x1600
    2430:	00b11113          	slli	s0,s0,0xb
    2434:	00000013          	nop
    2438:	01c000b7          	lui	ra,0x1c00
    243c:	00b09093          	slli	ra,ra,0xb
    2440:	00000013          	nop
    2444:	0220b1b3          	mulhu	s1,ra,s0
    2448:	00120213          	addi	s2,s2,1
    244c:	00200293          	li	s3,2
    2450:	fc521ee3          	bne	s2,s3,242c <test_24+0x4>
    2454:	09a00e93          	li	t3,154
    2458:	01800e13          	li	t2,24
    245c:	0bd19063          	bne	s1,t3,24fc <fail>

0000000000002460 <test_25>:
    2460:	00000213          	li	s2,0
    2464:	01600137          	lui	s0,0x1600
    2468:	00b11113          	slli	s0,s0,0xb
    246c:	00000013          	nop
    2470:	00000013          	nop
    2474:	01e000b7          	lui	ra,0x1e00
    2478:	00b09093          	slli	ra,ra,0xb
    247c:	0220b1b3          	mulhu	s1,ra,s0
    2480:	00120213          	addi	s2,s2,1
    2484:	00200293          	li	s3,2
    2488:	fc521ee3          	bne	s2,s3,2464 <test_25+0x4>
    248c:	0a500e93          	li	t3,165
    2490:	01900e13          	li	t2,25
    2494:	07d19463          	bne	s1,t3,24fc <fail>

0000000000002498 <test_26>:
    2498:	03e000b7          	lui	ra,0x3e00
    249c:	00b09093          	slli	ra,ra,0xb
    24a0:	02103133          	mulhu	s0,zero,ra
    24a4:	00000e93          	li	t3,0
    24a8:	01a00e13          	li	t2,26
    24ac:	05d11863          	bne	s0,t3,24fc <fail>

00000000000024b0 <test_27>:
    24b0:	040000b7          	lui	ra,0x4000
    24b4:	00b09093          	slli	ra,ra,0xb
    24b8:	0200b133          	mulhu	s0,ra,zero
    24bc:	00000e93          	li	t3,0
    24c0:	01b00e13          	li	t2,27
    24c4:	03d11c63          	bne	s0,t3,24fc <fail>

00000000000024c8 <test_28>:
    24c8:	020030b3          	mulhu	ra,zero,zero
    24cc:	00000e93          	li	t3,0
    24d0:	01c00e13          	li	t2,28
    24d4:	03d09463          	bne	ra,t3,24fc <fail>

00000000000024d8 <test_29>:
    24d8:	042000b7          	lui	ra,0x4200
    24dc:	00b09093          	slli	ra,ra,0xb
    24e0:	04400137          	lui	s0,0x4400
    24e4:	00b11113          	slli	s0,s0,0xb
    24e8:	0220b033          	mulhu	zero,ra,s0
    24ec:	00000e93          	li	t3,0
    24f0:	01d00e13          	li	t2,29
    24f4:	01d01463          	bne	zero,t3,24fc <fail>
    24f8:	01c01e63          	bne	zero,t2,2514 <pass>

00000000000024fc <fail>:
    24fc:	0ff0000f          	fence
    2500:	000e0863          	beqz	t2,2510 <fail+0x14>
    2504:	001e1e13          	slli	t2,t2,0x1
    2508:	001e6e13          	ori	t2,t2,1
    250c:	51ee1073          	csrw	tohost,t2
    2510:	00000063          	b	2510 <fail+0x14>

0000000000002514 <pass>:
    2514:	0ff0000f          	fence
    2518:	51e0d073          	csrwi	tohost,1
    251c:	00000063          	b	251c <pass+0x8>
