
rv64ui-p-amoor_w:     file format elf64-littleriscv


Disassembly of section .text:

0000000000002000 <_start>:
    2000:	50b02973          	csrr	a0,hartid
    2004:	00091063          	bnez	a0,2004 <_start+0x4>

0000000000002008 <test_2>:
    2008:	80000937          	lui	a0,0x80000
    200c:	80000993          	li	a1,-2048
    2010:	00000a97          	auipc	a3,0x0
    2014:	100a8a93          	addi	a3,a3,256 # 2110 <begin_signature>
    2018:	012ab023          	sd	a0,0(a3)
    201c:	00000013          	nop
    2020:	00000013          	nop
    2024:	00000013          	nop
    2028:	00000013          	nop
    202c:	00000013          	nop
    2030:	00000013          	nop
    2034:	00000013          	nop
    2038:	00000013          	nop
    203c:	00000013          	nop
    2040:	00000013          	nop
    2044:	00000013          	nop
    2048:	00000013          	nop
    204c:	00000013          	nop
    2050:	00000013          	nop
    2054:	00000013          	nop
    2058:	00000013          	nop
    205c:	00000013          	nop
    2060:	00000013          	nop
    2064:	00000013          	nop
    2068:	00000013          	nop
    206c:	00000013          	nop
    2070:	00000013          	nop
    2074:	00000013          	nop
    2078:	00000013          	nop
    207c:	00000013          	nop
    2080:	00000013          	nop
    2084:	00000013          	nop
    2088:	00000013          	nop
    208c:	413aab2f          	amoor.w	a4,a1,(a3)
    2090:	80000eb7          	lui	t3,0x80000
    2094:	00200e13          	li	t2,2
    2098:	05db1863          	bne	a4,t3,20e8 <fail>

000000000000209c <test_3>:
    209c:	000aab83          	lw	a5,0(a3)
    20a0:	80000e93          	li	t3,-2048
    20a4:	00300e13          	li	t2,3
    20a8:	05db9063          	bne	a5,t3,20e8 <fail>

00000000000020ac <test_4>:
    20ac:	00100993          	li	a1,1
    20b0:	00004b37          	lui	a4,0x4
    20b4:	016a8bb3          	add	a5,a3,a4
    20b8:	016b8bb3          	add	a5,a5,a4
    20bc:	016b8bb3          	add	a5,a5,a4
    20c0:	016b8bb3          	add	a5,a5,a4
    20c4:	413aab2f          	amoor.w	a4,a1,(a3)
    20c8:	80000e93          	li	t3,-2048
    20cc:	00400e13          	li	t2,4
    20d0:	01db1c63          	bne	a4,t3,20e8 <fail>

00000000000020d4 <test_5>:
    20d4:	000aab83          	lw	a5,0(a3)
    20d8:	80100e93          	li	t3,-2047
    20dc:	00500e13          	li	t2,5
    20e0:	01db9463          	bne	a5,t3,20e8 <fail>
    20e4:	01c01e63          	bne	zero,t2,2100 <pass>

00000000000020e8 <fail>:
    20e8:	0ff0000f          	fence
    20ec:	000e0863          	beqz	t2,20fc <fail+0x14>
    20f0:	001e1e13          	slli	t2,t2,0x1
    20f4:	001e6e13          	ori	t2,t2,1
    20f8:	51ee1073          	csrw	tohost,t2
    20fc:	00000063          	b	20fc <fail+0x14>

0000000000002100 <pass>:
    2100:	0ff0000f          	fence
    2104:	51e0d073          	csrwi	tohost,1
    2108:	00000063          	b	2108 <pass+0x8>
    210c:	00000013          	nop
