
rv64ui-p-bltu:     file format elf64-littleriscv


Disassembly of section .text:

0000000000002000 <_start>:
    2000:	50b02973          	csrr	a0,hartid
    2004:	00091063          	bnez	a0,2004 <_start+0x4>

0000000000002008 <test_2>:
    2008:	00200e13          	li	t2,2
    200c:	00000093          	li	ra,0
    2010:	00100113          	li	s0,1
    2014:	0020e663          	bltu	ra,s0,2020 <test_2+0x18>
    2018:	3dc01063          	bne	zero,t2,23d8 <fail>
    201c:	01c01663          	bne	zero,t2,2028 <test_3>
    2020:	fe20eee3          	bltu	ra,s0,201c <test_2+0x14>
    2024:	3bc01a63          	bne	zero,t2,23d8 <fail>

0000000000002028 <test_3>:
    2028:	00300e13          	li	t2,3
    202c:	002000b7          	lui	ra,0x200
    2030:	fff0809b          	addiw	ra,ra,-1
    2034:	00b09093          	slli	ra,ra,0xb
    2038:	7fe08093          	addi	ra,ra,2046 # 2007fe <begin_signature+0x1fe3fe>
    203c:	00200137          	lui	s0,0x200
    2040:	fff1011b          	addiw	s0,s0,-1
    2044:	00b11113          	slli	s0,s0,0xb
    2048:	7ff10113          	addi	s0,s0,2047 # 2007ff <begin_signature+0x1fe3ff>
    204c:	0020e663          	bltu	ra,s0,2058 <test_3+0x30>
    2050:	39c01463          	bne	zero,t2,23d8 <fail>
    2054:	01c01663          	bne	zero,t2,2060 <test_4>
    2058:	fe20eee3          	bltu	ra,s0,2054 <test_3+0x2c>
    205c:	37c01e63          	bne	zero,t2,23d8 <fail>

0000000000002060 <test_4>:
    2060:	00400e13          	li	t2,4
    2064:	00000093          	li	ra,0
    2068:	00200137          	lui	s0,0x200
    206c:	fff1011b          	addiw	s0,s0,-1
    2070:	00b11113          	slli	s0,s0,0xb
    2074:	7ff10113          	addi	s0,s0,2047 # 2007ff <begin_signature+0x1fe3ff>
    2078:	0020e663          	bltu	ra,s0,2084 <test_4+0x24>
    207c:	35c01e63          	bne	zero,t2,23d8 <fail>
    2080:	01c01663          	bne	zero,t2,208c <test_5>
    2084:	fe20eee3          	bltu	ra,s0,2080 <test_4+0x20>
    2088:	35c01863          	bne	zero,t2,23d8 <fail>

000000000000208c <test_5>:
    208c:	00500e13          	li	t2,5
    2090:	00100093          	li	ra,1
    2094:	00000113          	li	s0,0
    2098:	0020e463          	bltu	ra,s0,20a0 <test_5+0x14>
    209c:	01c01463          	bne	zero,t2,20a4 <test_5+0x18>
    20a0:	33c01c63          	bne	zero,t2,23d8 <fail>
    20a4:	fe20eee3          	bltu	ra,s0,20a0 <test_5+0x14>

00000000000020a8 <test_6>:
    20a8:	00600e13          	li	t2,6
    20ac:	002000b7          	lui	ra,0x200
    20b0:	fff0809b          	addiw	ra,ra,-1
    20b4:	00b09093          	slli	ra,ra,0xb
    20b8:	7ff08093          	addi	ra,ra,2047 # 2007ff <begin_signature+0x1fe3ff>
    20bc:	00200137          	lui	s0,0x200
    20c0:	fff1011b          	addiw	s0,s0,-1
    20c4:	00b11113          	slli	s0,s0,0xb
    20c8:	7fe10113          	addi	s0,s0,2046 # 2007fe <begin_signature+0x1fe3fe>
    20cc:	0020e463          	bltu	ra,s0,20d4 <test_6+0x2c>
    20d0:	01c01463          	bne	zero,t2,20d8 <test_6+0x30>
    20d4:	31c01263          	bne	zero,t2,23d8 <fail>
    20d8:	fe20eee3          	bltu	ra,s0,20d4 <test_6+0x2c>

00000000000020dc <test_7>:
    20dc:	00700e13          	li	t2,7
    20e0:	002000b7          	lui	ra,0x200
    20e4:	fff0809b          	addiw	ra,ra,-1
    20e8:	00b09093          	slli	ra,ra,0xb
    20ec:	7ff08093          	addi	ra,ra,2047 # 2007ff <begin_signature+0x1fe3ff>
    20f0:	00000113          	li	s0,0
    20f4:	0020e463          	bltu	ra,s0,20fc <test_7+0x20>
    20f8:	01c01463          	bne	zero,t2,2100 <test_7+0x24>
    20fc:	2dc01e63          	bne	zero,t2,23d8 <fail>
    2100:	fe20eee3          	bltu	ra,s0,20fc <test_7+0x20>

0000000000002104 <test_8>:
    2104:	00800e13          	li	t2,8
    2108:	001000b7          	lui	ra,0x100
    210c:	00b09093          	slli	ra,ra,0xb
    2110:	80000137          	lui	s0,0x80000
    2114:	fff1011b          	addiw	s0,s0,-1
    2118:	0020e463          	bltu	ra,s0,2120 <test_8+0x1c>
    211c:	01c01463          	bne	zero,t2,2124 <test_8+0x20>
    2120:	2bc01c63          	bne	zero,t2,23d8 <fail>
    2124:	fe20eee3          	bltu	ra,s0,2120 <test_8+0x1c>

0000000000002128 <test_9>:
    2128:	00900e13          	li	t2,9
    212c:	00000213          	li	s2,0
    2130:	001e00b7          	lui	ra,0x1e0
    2134:	00b09093          	slli	ra,ra,0xb
    2138:	001e0137          	lui	s0,0x1e0
    213c:	fff1011b          	addiw	s0,s0,-1
    2140:	00b11113          	slli	s0,s0,0xb
    2144:	7ff10113          	addi	s0,s0,2047 # 1e07ff <begin_signature+0x1de3ff>
    2148:	2820e863          	bltu	ra,s0,23d8 <fail>
    214c:	00120213          	addi	s2,s2,1
    2150:	00200293          	li	s3,2
    2154:	fc521ee3          	bne	s2,s3,2130 <test_9+0x8>

0000000000002158 <test_10>:
    2158:	00a00e13          	li	t2,10
    215c:	00000213          	li	s2,0
    2160:	001e00b7          	lui	ra,0x1e0
    2164:	00b09093          	slli	ra,ra,0xb
    2168:	001e0137          	lui	s0,0x1e0
    216c:	fff1011b          	addiw	s0,s0,-1
    2170:	00b11113          	slli	s0,s0,0xb
    2174:	7ff10113          	addi	s0,s0,2047 # 1e07ff <begin_signature+0x1de3ff>
    2178:	00000013          	nop
    217c:	2420ee63          	bltu	ra,s0,23d8 <fail>
    2180:	00120213          	addi	s2,s2,1
    2184:	00200293          	li	s3,2
    2188:	fc521ce3          	bne	s2,s3,2160 <test_10+0x8>

000000000000218c <test_11>:
    218c:	00b00e13          	li	t2,11
    2190:	00000213          	li	s2,0
    2194:	001e00b7          	lui	ra,0x1e0
    2198:	00b09093          	slli	ra,ra,0xb
    219c:	001e0137          	lui	s0,0x1e0
    21a0:	fff1011b          	addiw	s0,s0,-1
    21a4:	00b11113          	slli	s0,s0,0xb
    21a8:	7ff10113          	addi	s0,s0,2047 # 1e07ff <begin_signature+0x1de3ff>
    21ac:	00000013          	nop
    21b0:	00000013          	nop
    21b4:	2220e263          	bltu	ra,s0,23d8 <fail>
    21b8:	00120213          	addi	s2,s2,1
    21bc:	00200293          	li	s3,2
    21c0:	fc521ae3          	bne	s2,s3,2194 <test_11+0x8>

00000000000021c4 <test_12>:
    21c4:	00c00e13          	li	t2,12
    21c8:	00000213          	li	s2,0
    21cc:	001e00b7          	lui	ra,0x1e0
    21d0:	00b09093          	slli	ra,ra,0xb
    21d4:	00000013          	nop
    21d8:	001e0137          	lui	s0,0x1e0
    21dc:	fff1011b          	addiw	s0,s0,-1
    21e0:	00b11113          	slli	s0,s0,0xb
    21e4:	7ff10113          	addi	s0,s0,2047 # 1e07ff <begin_signature+0x1de3ff>
    21e8:	1e20e863          	bltu	ra,s0,23d8 <fail>
    21ec:	00120213          	addi	s2,s2,1
    21f0:	00200293          	li	s3,2
    21f4:	fc521ce3          	bne	s2,s3,21cc <test_12+0x8>

00000000000021f8 <test_13>:
    21f8:	00d00e13          	li	t2,13
    21fc:	00000213          	li	s2,0
    2200:	001e00b7          	lui	ra,0x1e0
    2204:	00b09093          	slli	ra,ra,0xb
    2208:	00000013          	nop
    220c:	001e0137          	lui	s0,0x1e0
    2210:	fff1011b          	addiw	s0,s0,-1
    2214:	00b11113          	slli	s0,s0,0xb
    2218:	7ff10113          	addi	s0,s0,2047 # 1e07ff <begin_signature+0x1de3ff>
    221c:	00000013          	nop
    2220:	1a20ec63          	bltu	ra,s0,23d8 <fail>
    2224:	00120213          	addi	s2,s2,1
    2228:	00200293          	li	s3,2
    222c:	fc521ae3          	bne	s2,s3,2200 <test_13+0x8>

0000000000002230 <test_14>:
    2230:	00e00e13          	li	t2,14
    2234:	00000213          	li	s2,0
    2238:	001e00b7          	lui	ra,0x1e0
    223c:	00b09093          	slli	ra,ra,0xb
    2240:	00000013          	nop
    2244:	00000013          	nop
    2248:	001e0137          	lui	s0,0x1e0
    224c:	fff1011b          	addiw	s0,s0,-1
    2250:	00b11113          	slli	s0,s0,0xb
    2254:	7ff10113          	addi	s0,s0,2047 # 1e07ff <begin_signature+0x1de3ff>
    2258:	1820e063          	bltu	ra,s0,23d8 <fail>
    225c:	00120213          	addi	s2,s2,1
    2260:	00200293          	li	s3,2
    2264:	fc521ae3          	bne	s2,s3,2238 <test_14+0x8>

0000000000002268 <test_15>:
    2268:	00f00e13          	li	t2,15
    226c:	00000213          	li	s2,0
    2270:	001e00b7          	lui	ra,0x1e0
    2274:	00b09093          	slli	ra,ra,0xb
    2278:	001e0137          	lui	s0,0x1e0
    227c:	fff1011b          	addiw	s0,s0,-1
    2280:	00b11113          	slli	s0,s0,0xb
    2284:	7ff10113          	addi	s0,s0,2047 # 1e07ff <begin_signature+0x1de3ff>
    2288:	1420e863          	bltu	ra,s0,23d8 <fail>
    228c:	00120213          	addi	s2,s2,1
    2290:	00200293          	li	s3,2
    2294:	fc521ee3          	bne	s2,s3,2270 <test_15+0x8>

0000000000002298 <test_16>:
    2298:	01000e13          	li	t2,16
    229c:	00000213          	li	s2,0
    22a0:	001e00b7          	lui	ra,0x1e0
    22a4:	00b09093          	slli	ra,ra,0xb
    22a8:	001e0137          	lui	s0,0x1e0
    22ac:	fff1011b          	addiw	s0,s0,-1
    22b0:	00b11113          	slli	s0,s0,0xb
    22b4:	7ff10113          	addi	s0,s0,2047 # 1e07ff <begin_signature+0x1de3ff>
    22b8:	00000013          	nop
    22bc:	1020ee63          	bltu	ra,s0,23d8 <fail>
    22c0:	00120213          	addi	s2,s2,1
    22c4:	00200293          	li	s3,2
    22c8:	fc521ce3          	bne	s2,s3,22a0 <test_16+0x8>

00000000000022cc <test_17>:
    22cc:	01100e13          	li	t2,17
    22d0:	00000213          	li	s2,0
    22d4:	001e00b7          	lui	ra,0x1e0
    22d8:	00b09093          	slli	ra,ra,0xb
    22dc:	001e0137          	lui	s0,0x1e0
    22e0:	fff1011b          	addiw	s0,s0,-1
    22e4:	00b11113          	slli	s0,s0,0xb
    22e8:	7ff10113          	addi	s0,s0,2047 # 1e07ff <begin_signature+0x1de3ff>
    22ec:	00000013          	nop
    22f0:	00000013          	nop
    22f4:	0e20e263          	bltu	ra,s0,23d8 <fail>
    22f8:	00120213          	addi	s2,s2,1
    22fc:	00200293          	li	s3,2
    2300:	fc521ae3          	bne	s2,s3,22d4 <test_17+0x8>

0000000000002304 <test_18>:
    2304:	01200e13          	li	t2,18
    2308:	00000213          	li	s2,0
    230c:	001e00b7          	lui	ra,0x1e0
    2310:	00b09093          	slli	ra,ra,0xb
    2314:	00000013          	nop
    2318:	001e0137          	lui	s0,0x1e0
    231c:	fff1011b          	addiw	s0,s0,-1
    2320:	00b11113          	slli	s0,s0,0xb
    2324:	7ff10113          	addi	s0,s0,2047 # 1e07ff <begin_signature+0x1de3ff>
    2328:	0a20e863          	bltu	ra,s0,23d8 <fail>
    232c:	00120213          	addi	s2,s2,1
    2330:	00200293          	li	s3,2
    2334:	fc521ce3          	bne	s2,s3,230c <test_18+0x8>

0000000000002338 <test_19>:
    2338:	01300e13          	li	t2,19
    233c:	00000213          	li	s2,0
    2340:	001e00b7          	lui	ra,0x1e0
    2344:	00b09093          	slli	ra,ra,0xb
    2348:	00000013          	nop
    234c:	001e0137          	lui	s0,0x1e0
    2350:	fff1011b          	addiw	s0,s0,-1
    2354:	00b11113          	slli	s0,s0,0xb
    2358:	7ff10113          	addi	s0,s0,2047 # 1e07ff <begin_signature+0x1de3ff>
    235c:	00000013          	nop
    2360:	0620ec63          	bltu	ra,s0,23d8 <fail>
    2364:	00120213          	addi	s2,s2,1
    2368:	00200293          	li	s3,2
    236c:	fc521ae3          	bne	s2,s3,2340 <test_19+0x8>

0000000000002370 <test_20>:
    2370:	01400e13          	li	t2,20
    2374:	00000213          	li	s2,0
    2378:	001e00b7          	lui	ra,0x1e0
    237c:	00b09093          	slli	ra,ra,0xb
    2380:	00000013          	nop
    2384:	00000013          	nop
    2388:	001e0137          	lui	s0,0x1e0
    238c:	fff1011b          	addiw	s0,s0,-1
    2390:	00b11113          	slli	s0,s0,0xb
    2394:	7ff10113          	addi	s0,s0,2047 # 1e07ff <begin_signature+0x1de3ff>
    2398:	0420e063          	bltu	ra,s0,23d8 <fail>
    239c:	00120213          	addi	s2,s2,1
    23a0:	00200293          	li	s3,2
    23a4:	fc521ae3          	bne	s2,s3,2378 <test_20+0x8>

00000000000023a8 <test_21>:
    23a8:	00100093          	li	ra,1
    23ac:	00106a63          	bltu	zero,ra,23c0 <test_21+0x18>
    23b0:	00108093          	addi	ra,ra,1 # 1e0001 <begin_signature+0x1ddc01>
    23b4:	00108093          	addi	ra,ra,1
    23b8:	00108093          	addi	ra,ra,1
    23bc:	00108093          	addi	ra,ra,1
    23c0:	00108093          	addi	ra,ra,1
    23c4:	00108093          	addi	ra,ra,1
    23c8:	00300e93          	li	t3,3
    23cc:	01500e13          	li	t2,21
    23d0:	01d09463          	bne	ra,t3,23d8 <fail>
    23d4:	01c01e63          	bne	zero,t2,23f0 <pass>

00000000000023d8 <fail>:
    23d8:	0ff0000f          	fence
    23dc:	000e0863          	beqz	t2,23ec <fail+0x14>
    23e0:	001e1e13          	slli	t2,t2,0x1
    23e4:	001e6e13          	ori	t2,t2,1
    23e8:	51ee1073          	csrw	tohost,t2
    23ec:	00000063          	b	23ec <fail+0x14>

00000000000023f0 <pass>:
    23f0:	0ff0000f          	fence
    23f4:	51e0d073          	csrwi	tohost,1
    23f8:	00000063          	b	23f8 <pass+0x8>
    23fc:	00000013          	nop
