
rv64ui-p-divuw:     file format elf64-littleriscv


Disassembly of section .text:

0000000000002000 <_start>:
    2000:	50b02973          	csrr	a0,hartid
    2004:	00091063          	bnez	a0,2004 <_start+0x4>

0000000000002008 <test_2>:
    2008:	01400093          	li	ra,20
    200c:	00600113          	li	s0,6
    2010:	0220d1bb          	divuw	s1,ra,s0
    2014:	00300e93          	li	t3,3
    2018:	00200e13          	li	t2,2
    201c:	0dd19c63          	bne	s1,t3,20f4 <fail>

0000000000002020 <test_3>:
    2020:	002000b7          	lui	ra,0x200
    2024:	fff0809b          	addiw	ra,ra,-1
    2028:	00b09093          	slli	ra,ra,0xb
    202c:	7ec08093          	addi	ra,ra,2028 # 2007ec <begin_signature+0x1fe6cc>
    2030:	00600113          	li	s0,6
    2034:	0220d1bb          	divuw	s1,ra,s0
    2038:	2aaabeb7          	lui	t3,0x2aaab
    203c:	aa7e8e9b          	addiw	t3,t3,-1369
    2040:	00300e13          	li	t2,3
    2044:	0bd19863          	bne	s1,t3,20f4 <fail>

0000000000002048 <test_4>:
    2048:	01400093          	li	ra,20
    204c:	ffa00113          	li	s0,-6
    2050:	0220d1bb          	divuw	s1,ra,s0
    2054:	00000e93          	li	t3,0
    2058:	00400e13          	li	t2,4
    205c:	09d19c63          	bne	s1,t3,20f4 <fail>

0000000000002060 <test_5>:
    2060:	fec00093          	li	ra,-20
    2064:	ffa00113          	li	s0,-6
    2068:	0220d1bb          	divuw	s1,ra,s0
    206c:	00000e93          	li	t3,0
    2070:	00500e13          	li	t2,5
    2074:	09d19063          	bne	s1,t3,20f4 <fail>

0000000000002078 <test_6>:
    2078:	800000b7          	lui	ra,0x80000
    207c:	00100113          	li	s0,1
    2080:	0220d1bb          	divuw	s1,ra,s0
    2084:	80000eb7          	lui	t3,0x80000
    2088:	00600e13          	li	t2,6
    208c:	07d19463          	bne	s1,t3,20f4 <fail>

0000000000002090 <test_7>:
    2090:	800000b7          	lui	ra,0x80000
    2094:	fff00113          	li	s0,-1
    2098:	0220d1bb          	divuw	s1,ra,s0
    209c:	00000e93          	li	t3,0
    20a0:	00700e13          	li	t2,7
    20a4:	05d19863          	bne	s1,t3,20f4 <fail>

00000000000020a8 <test_8>:
    20a8:	800000b7          	lui	ra,0x80000
    20ac:	00000113          	li	s0,0
    20b0:	0220d1bb          	divuw	s1,ra,s0
    20b4:	fff00e93          	li	t3,-1
    20b8:	00800e13          	li	t2,8
    20bc:	03d19c63          	bne	s1,t3,20f4 <fail>

00000000000020c0 <test_9>:
    20c0:	00100093          	li	ra,1
    20c4:	00000113          	li	s0,0
    20c8:	0220d1bb          	divuw	s1,ra,s0
    20cc:	fff00e93          	li	t3,-1
    20d0:	00900e13          	li	t2,9
    20d4:	03d19063          	bne	s1,t3,20f4 <fail>

00000000000020d8 <test_10>:
    20d8:	00000093          	li	ra,0
    20dc:	00000113          	li	s0,0
    20e0:	0220d1bb          	divuw	s1,ra,s0
    20e4:	fff00e93          	li	t3,-1
    20e8:	00a00e13          	li	t2,10
    20ec:	01d19463          	bne	s1,t3,20f4 <fail>
    20f0:	01c01e63          	bne	zero,t2,210c <pass>

00000000000020f4 <fail>:
    20f4:	0ff0000f          	fence
    20f8:	000e0863          	beqz	t2,2108 <fail+0x14>
    20fc:	001e1e13          	slli	t2,t2,0x1
    2100:	001e6e13          	ori	t2,t2,1
    2104:	51ee1073          	csrw	tohost,t2
    2108:	00000063          	b	2108 <fail+0x14>

000000000000210c <pass>:
    210c:	0ff0000f          	fence
    2110:	51e0d073          	csrwi	tohost,1
    2114:	00000063          	b	2114 <pass+0x8>
    2118:	00000013          	nop
    211c:	00000013          	nop
