
rv64ui-p-remuw:     file format elf64-littleriscv


Disassembly of section .text:

0000000000002000 <_start>:
    2000:	50b02973          	csrr	a0,hartid
    2004:	00091063          	bnez	a0,2004 <_start+0x4>

0000000000002008 <test_2>:
    2008:	01400093          	li	ra,20
    200c:	00600113          	li	s0,6
    2010:	0220f1bb          	remuw	s1,ra,s0
    2014:	00200e93          	li	t3,2
    2018:	00200e13          	li	t2,2
    201c:	0dd19463          	bne	s1,t3,20e4 <fail>

0000000000002020 <test_3>:
    2020:	fec00093          	li	ra,-20
    2024:	00600113          	li	s0,6
    2028:	0220f1bb          	remuw	s1,ra,s0
    202c:	00200e93          	li	t3,2
    2030:	00300e13          	li	t2,3
    2034:	0bd19863          	bne	s1,t3,20e4 <fail>

0000000000002038 <test_4>:
    2038:	01400093          	li	ra,20
    203c:	ffa00113          	li	s0,-6
    2040:	0220f1bb          	remuw	s1,ra,s0
    2044:	01400e93          	li	t3,20
    2048:	00400e13          	li	t2,4
    204c:	09d19c63          	bne	s1,t3,20e4 <fail>

0000000000002050 <test_5>:
    2050:	fec00093          	li	ra,-20
    2054:	ffa00113          	li	s0,-6
    2058:	0220f1bb          	remuw	s1,ra,s0
    205c:	fec00e93          	li	t3,-20
    2060:	00500e13          	li	t2,5
    2064:	09d19063          	bne	s1,t3,20e4 <fail>

0000000000002068 <test_6>:
    2068:	800000b7          	lui	ra,0x80000
    206c:	00100113          	li	s0,1
    2070:	0220f1bb          	remuw	s1,ra,s0
    2074:	00000e93          	li	t3,0
    2078:	00600e13          	li	t2,6
    207c:	07d19463          	bne	s1,t3,20e4 <fail>

0000000000002080 <test_7>:
    2080:	800000b7          	lui	ra,0x80000
    2084:	fff00113          	li	s0,-1
    2088:	0220f1bb          	remuw	s1,ra,s0
    208c:	80000eb7          	lui	t3,0x80000
    2090:	00700e13          	li	t2,7
    2094:	05d19863          	bne	s1,t3,20e4 <fail>

0000000000002098 <test_8>:
    2098:	800000b7          	lui	ra,0x80000
    209c:	00000113          	li	s0,0
    20a0:	0220f1bb          	remuw	s1,ra,s0
    20a4:	80000eb7          	lui	t3,0x80000
    20a8:	00800e13          	li	t2,8
    20ac:	03d19c63          	bne	s1,t3,20e4 <fail>

00000000000020b0 <test_9>:
    20b0:	00100093          	li	ra,1
    20b4:	00000113          	li	s0,0
    20b8:	0220f1bb          	remuw	s1,ra,s0
    20bc:	00100e93          	li	t3,1
    20c0:	00900e13          	li	t2,9
    20c4:	03d19063          	bne	s1,t3,20e4 <fail>

00000000000020c8 <test_10>:
    20c8:	00000093          	li	ra,0
    20cc:	00000113          	li	s0,0
    20d0:	0220f1bb          	remuw	s1,ra,s0
    20d4:	00000e93          	li	t3,0
    20d8:	00a00e13          	li	t2,10
    20dc:	01d19463          	bne	s1,t3,20e4 <fail>
    20e0:	01c01e63          	bne	zero,t2,20fc <pass>

00000000000020e4 <fail>:
    20e4:	0ff0000f          	fence
    20e8:	000e0863          	beqz	t2,20f8 <fail+0x14>
    20ec:	001e1e13          	slli	t2,t2,0x1
    20f0:	001e6e13          	ori	t2,t2,1
    20f4:	51ee1073          	csrw	tohost,t2
    20f8:	00000063          	b	20f8 <fail+0x14>

00000000000020fc <pass>:
    20fc:	0ff0000f          	fence
    2100:	51e0d073          	csrwi	tohost,1
    2104:	00000063          	b	2104 <pass+0x8>
    2108:	00000013          	nop
    210c:	00000013          	nop
