
rv64ui-p-addi:     file format elf64-littleriscv


Disassembly of section .text:

0000000000002000 <_start>:
    2000:	50b02973          	csrr	a0,hartid
    2004:	00091063          	bnez	a0,2004 <_start+0x4>

0000000000002008 <test_2>:
    2008:	00000093          	li	ra,0
    200c:	00008193          	mv	s1,ra
    2010:	00000e93          	li	t3,0
    2014:	00200e13          	li	t2,2
    2018:	29d19263          	bne	s1,t3,229c <fail>

000000000000201c <test_3>:
    201c:	00100093          	li	ra,1
    2020:	00108193          	addi	s1,ra,1
    2024:	00200e93          	li	t3,2
    2028:	00300e13          	li	t2,3
    202c:	27d19863          	bne	s1,t3,229c <fail>

0000000000002030 <test_4>:
    2030:	00300093          	li	ra,3
    2034:	00708193          	addi	s1,ra,7
    2038:	00a00e93          	li	t3,10
    203c:	00400e13          	li	t2,4
    2040:	25d19e63          	bne	s1,t3,229c <fail>

0000000000002044 <test_5>:
    2044:	00000093          	li	ra,0
    2048:	80008193          	addi	s1,ra,-2048
    204c:	80000e93          	li	t3,-2048
    2050:	00500e13          	li	t2,5
    2054:	25d19463          	bne	s1,t3,229c <fail>

0000000000002058 <test_6>:
    2058:	800000b7          	lui	ra,0x80000
    205c:	00008193          	mv	s1,ra
    2060:	80000eb7          	lui	t3,0x80000
    2064:	00600e13          	li	t2,6
    2068:	23d19a63          	bne	s1,t3,229c <fail>

000000000000206c <test_7>:
    206c:	800000b7          	lui	ra,0x80000
    2070:	80008193          	addi	s1,ra,-2048 # ffffffff7ffff800 <begin_signature+0xffffffff7fffd540>
    2074:	fff00eb7          	lui	t3,0xfff00
    2078:	fffe8e9b          	addiw	t3,t3,-1
    207c:	00be9e93          	slli	t3,t3,0xb
    2080:	00700e13          	li	t2,7
    2084:	21d19c63          	bne	s1,t3,229c <fail>

0000000000002088 <test_8>:
    2088:	00000093          	li	ra,0
    208c:	7ff08193          	addi	s1,ra,2047
    2090:	7ff00e93          	li	t3,2047
    2094:	00800e13          	li	t2,8
    2098:	21d19263          	bne	s1,t3,229c <fail>

000000000000209c <test_9>:
    209c:	800000b7          	lui	ra,0x80000
    20a0:	fff0809b          	addiw	ra,ra,-1
    20a4:	00008193          	mv	s1,ra
    20a8:	80000eb7          	lui	t3,0x80000
    20ac:	fffe8e9b          	addiw	t3,t3,-1
    20b0:	00900e13          	li	t2,9
    20b4:	1fd19463          	bne	s1,t3,229c <fail>

00000000000020b8 <test_10>:
    20b8:	800000b7          	lui	ra,0x80000
    20bc:	fff0809b          	addiw	ra,ra,-1
    20c0:	7ff08193          	addi	s1,ra,2047 # ffffffff800007ff <begin_signature+0xffffffff7fffe53f>
    20c4:	00100eb7          	lui	t3,0x100
    20c8:	00be9e93          	slli	t3,t3,0xb
    20cc:	7fee8e93          	addi	t3,t3,2046 # 1007fe <begin_signature+0xfe53e>
    20d0:	00a00e13          	li	t2,10
    20d4:	1dd19463          	bne	s1,t3,229c <fail>

00000000000020d8 <test_11>:
    20d8:	800000b7          	lui	ra,0x80000
    20dc:	7ff08193          	addi	s1,ra,2047 # ffffffff800007ff <begin_signature+0xffffffff7fffe53f>
    20e0:	80000eb7          	lui	t3,0x80000
    20e4:	7ffe8e9b          	addiw	t3,t3,2047
    20e8:	00b00e13          	li	t2,11
    20ec:	1bd19863          	bne	s1,t3,229c <fail>

00000000000020f0 <test_12>:
    20f0:	800000b7          	lui	ra,0x80000
    20f4:	fff0809b          	addiw	ra,ra,-1
    20f8:	80008193          	addi	s1,ra,-2048 # ffffffff7ffff800 <begin_signature+0xffffffff7fffd540>
    20fc:	7ffffeb7          	lui	t3,0x7ffff
    2100:	7ffe8e9b          	addiw	t3,t3,2047
    2104:	00c00e13          	li	t2,12
    2108:	19d19a63          	bne	s1,t3,229c <fail>

000000000000210c <test_13>:
    210c:	00000093          	li	ra,0
    2110:	fff08193          	addi	s1,ra,-1
    2114:	fff00e93          	li	t3,-1
    2118:	00d00e13          	li	t2,13
    211c:	19d19063          	bne	s1,t3,229c <fail>

0000000000002120 <test_14>:
    2120:	fff00093          	li	ra,-1
    2124:	00108193          	addi	s1,ra,1
    2128:	00000e93          	li	t3,0
    212c:	00e00e13          	li	t2,14
    2130:	17d19663          	bne	s1,t3,229c <fail>

0000000000002134 <test_15>:
    2134:	fff00093          	li	ra,-1
    2138:	fff08193          	addi	s1,ra,-1
    213c:	ffe00e93          	li	t3,-2
    2140:	00f00e13          	li	t2,15
    2144:	15d19c63          	bne	s1,t3,229c <fail>

0000000000002148 <test_16>:
    2148:	800000b7          	lui	ra,0x80000
    214c:	fff0809b          	addiw	ra,ra,-1
    2150:	00108193          	addi	s1,ra,1 # ffffffff80000001 <begin_signature+0xffffffff7fffdd41>
    2154:	00100eb7          	lui	t3,0x100
    2158:	00be9e93          	slli	t3,t3,0xb
    215c:	01000e13          	li	t2,16
    2160:	13d19e63          	bne	s1,t3,229c <fail>

0000000000002164 <test_17>:
    2164:	00d00093          	li	ra,13
    2168:	00b08093          	addi	ra,ra,11
    216c:	01800e93          	li	t3,24
    2170:	01100e13          	li	t2,17
    2174:	13d09463          	bne	ra,t3,229c <fail>

0000000000002178 <test_18>:
    2178:	00000213          	li	s2,0
    217c:	00d00093          	li	ra,13
    2180:	00b08193          	addi	s1,ra,11
    2184:	00018313          	mv	s4,s1
    2188:	00120213          	addi	s2,s2,1
    218c:	00200293          	li	s3,2
    2190:	fe5216e3          	bne	s2,s3,217c <test_18+0x4>
    2194:	01800e93          	li	t3,24
    2198:	01200e13          	li	t2,18
    219c:	11d31063          	bne	s4,t3,229c <fail>

00000000000021a0 <test_19>:
    21a0:	00000213          	li	s2,0
    21a4:	00d00093          	li	ra,13
    21a8:	00a08193          	addi	s1,ra,10
    21ac:	00000013          	nop
    21b0:	00018313          	mv	s4,s1
    21b4:	00120213          	addi	s2,s2,1
    21b8:	00200293          	li	s3,2
    21bc:	fe5214e3          	bne	s2,s3,21a4 <test_19+0x4>
    21c0:	01700e93          	li	t3,23
    21c4:	01300e13          	li	t2,19
    21c8:	0dd31a63          	bne	s4,t3,229c <fail>

00000000000021cc <test_20>:
    21cc:	00000213          	li	s2,0
    21d0:	00d00093          	li	ra,13
    21d4:	00908193          	addi	s1,ra,9
    21d8:	00000013          	nop
    21dc:	00000013          	nop
    21e0:	00018313          	mv	s4,s1
    21e4:	00120213          	addi	s2,s2,1
    21e8:	00200293          	li	s3,2
    21ec:	fe5212e3          	bne	s2,s3,21d0 <test_20+0x4>
    21f0:	01600e93          	li	t3,22
    21f4:	01400e13          	li	t2,20
    21f8:	0bd31263          	bne	s4,t3,229c <fail>

00000000000021fc <test_21>:
    21fc:	00000213          	li	s2,0
    2200:	00d00093          	li	ra,13
    2204:	00b08193          	addi	s1,ra,11
    2208:	00120213          	addi	s2,s2,1
    220c:	00200293          	li	s3,2
    2210:	fe5218e3          	bne	s2,s3,2200 <test_21+0x4>
    2214:	01800e93          	li	t3,24
    2218:	01500e13          	li	t2,21
    221c:	09d19063          	bne	s1,t3,229c <fail>

0000000000002220 <test_22>:
    2220:	00000213          	li	s2,0
    2224:	00d00093          	li	ra,13
    2228:	00000013          	nop
    222c:	00a08193          	addi	s1,ra,10
    2230:	00120213          	addi	s2,s2,1
    2234:	00200293          	li	s3,2
    2238:	fe5216e3          	bne	s2,s3,2224 <test_22+0x4>
    223c:	01700e93          	li	t3,23
    2240:	01600e13          	li	t2,22
    2244:	05d19c63          	bne	s1,t3,229c <fail>

0000000000002248 <test_23>:
    2248:	00000213          	li	s2,0
    224c:	00d00093          	li	ra,13
    2250:	00000013          	nop
    2254:	00000013          	nop
    2258:	00908193          	addi	s1,ra,9
    225c:	00120213          	addi	s2,s2,1
    2260:	00200293          	li	s3,2
    2264:	fe5214e3          	bne	s2,s3,224c <test_23+0x4>
    2268:	01600e93          	li	t3,22
    226c:	01700e13          	li	t2,23
    2270:	03d19663          	bne	s1,t3,229c <fail>

0000000000002274 <test_24>:
    2274:	02000093          	li	ra,32
    2278:	02000e93          	li	t3,32
    227c:	01800e13          	li	t2,24
    2280:	01d09e63          	bne	ra,t3,229c <fail>

0000000000002284 <test_25>:
    2284:	02100093          	li	ra,33
    2288:	03208013          	addi	zero,ra,50
    228c:	00000e93          	li	t3,0
    2290:	01900e13          	li	t2,25
    2294:	01d01463          	bne	zero,t3,229c <fail>
    2298:	01c01e63          	bne	zero,t2,22b4 <pass>

000000000000229c <fail>:
    229c:	0ff0000f          	fence
    22a0:	000e0863          	beqz	t2,22b0 <fail+0x14>
    22a4:	001e1e13          	slli	t2,t2,0x1
    22a8:	001e6e13          	ori	t2,t2,1
    22ac:	51ee1073          	csrw	tohost,t2
    22b0:	00000063          	b	22b0 <fail+0x14>

00000000000022b4 <pass>:
    22b4:	0ff0000f          	fence
    22b8:	51e0d073          	csrwi	tohost,1
    22bc:	00000063          	b	22bc <pass+0x8>
