
rv64ui-p-subw:     file format elf64-littleriscv


Disassembly of section .text:

0000000000002000 <_start>:
    2000:	50b02973          	csrr	a0,hartid
    2004:	00091063          	bnez	a0,2004 <_start+0x4>

0000000000002008 <test_2>:
    2008:	00000093          	li	ra,0
    200c:	00000113          	li	s0,0
    2010:	402081bb          	subw	s1,ra,s0
    2014:	00000e93          	li	t3,0
    2018:	00200e13          	li	t2,2
    201c:	4bd19663          	bne	s1,t3,24c8 <fail>

0000000000002020 <test_3>:
    2020:	00100093          	li	ra,1
    2024:	00100113          	li	s0,1
    2028:	402081bb          	subw	s1,ra,s0
    202c:	00000e93          	li	t3,0
    2030:	00300e13          	li	t2,3
    2034:	49d19a63          	bne	s1,t3,24c8 <fail>

0000000000002038 <test_4>:
    2038:	00300093          	li	ra,3
    203c:	00700113          	li	s0,7
    2040:	402081bb          	subw	s1,ra,s0
    2044:	ffc00e93          	li	t3,-4
    2048:	00400e13          	li	t2,4
    204c:	47d19e63          	bne	s1,t3,24c8 <fail>

0000000000002050 <test_5>:
    2050:	00000093          	li	ra,0
    2054:	ffff8137          	lui	s0,0xffff8
    2058:	402081bb          	subw	s1,ra,s0
    205c:	00008eb7          	lui	t3,0x8
    2060:	00500e13          	li	t2,5
    2064:	47d19263          	bne	s1,t3,24c8 <fail>

0000000000002068 <test_6>:
    2068:	800000b7          	lui	ra,0x80000
    206c:	00000113          	li	s0,0
    2070:	402081bb          	subw	s1,ra,s0
    2074:	80000eb7          	lui	t3,0x80000
    2078:	00600e13          	li	t2,6
    207c:	45d19663          	bne	s1,t3,24c8 <fail>

0000000000002080 <test_7>:
    2080:	800000b7          	lui	ra,0x80000
    2084:	ffff8137          	lui	s0,0xffff8
    2088:	402081bb          	subw	s1,ra,s0
    208c:	80008eb7          	lui	t3,0x80008
    2090:	00700e13          	li	t2,7
    2094:	43d19a63          	bne	s1,t3,24c8 <fail>

0000000000002098 <test_8>:
    2098:	00000093          	li	ra,0
    209c:	00008137          	lui	s0,0x8
    20a0:	fff1011b          	addiw	s0,s0,-1
    20a4:	402081bb          	subw	s1,ra,s0
    20a8:	ffff8eb7          	lui	t3,0xffff8
    20ac:	001e8e9b          	addiw	t3,t3,1
    20b0:	00800e13          	li	t2,8
    20b4:	41d19a63          	bne	s1,t3,24c8 <fail>

00000000000020b8 <test_9>:
    20b8:	800000b7          	lui	ra,0x80000
    20bc:	fff0809b          	addiw	ra,ra,-1
    20c0:	00000113          	li	s0,0
    20c4:	402081bb          	subw	s1,ra,s0
    20c8:	80000eb7          	lui	t3,0x80000
    20cc:	fffe8e9b          	addiw	t3,t3,-1
    20d0:	00900e13          	li	t2,9
    20d4:	3fd19a63          	bne	s1,t3,24c8 <fail>

00000000000020d8 <test_10>:
    20d8:	800000b7          	lui	ra,0x80000
    20dc:	fff0809b          	addiw	ra,ra,-1
    20e0:	00008137          	lui	s0,0x8
    20e4:	fff1011b          	addiw	s0,s0,-1
    20e8:	402081bb          	subw	s1,ra,s0
    20ec:	7fff8eb7          	lui	t3,0x7fff8
    20f0:	00a00e13          	li	t2,10
    20f4:	3dd19a63          	bne	s1,t3,24c8 <fail>

00000000000020f8 <test_11>:
    20f8:	800000b7          	lui	ra,0x80000
    20fc:	00008137          	lui	s0,0x8
    2100:	fff1011b          	addiw	s0,s0,-1
    2104:	402081bb          	subw	s1,ra,s0
    2108:	7fff8eb7          	lui	t3,0x7fff8
    210c:	001e8e9b          	addiw	t3,t3,1
    2110:	00b00e13          	li	t2,11
    2114:	3bd19a63          	bne	s1,t3,24c8 <fail>

0000000000002118 <test_12>:
    2118:	800000b7          	lui	ra,0x80000
    211c:	fff0809b          	addiw	ra,ra,-1
    2120:	ffff8137          	lui	s0,0xffff8
    2124:	402081bb          	subw	s1,ra,s0
    2128:	80008eb7          	lui	t3,0x80008
    212c:	fffe8e9b          	addiw	t3,t3,-1
    2130:	00c00e13          	li	t2,12
    2134:	39d19a63          	bne	s1,t3,24c8 <fail>

0000000000002138 <test_13>:
    2138:	00000093          	li	ra,0
    213c:	fff00113          	li	s0,-1
    2140:	402081bb          	subw	s1,ra,s0
    2144:	00100e93          	li	t3,1
    2148:	00d00e13          	li	t2,13
    214c:	37d19e63          	bne	s1,t3,24c8 <fail>

0000000000002150 <test_14>:
    2150:	fff00093          	li	ra,-1
    2154:	00100113          	li	s0,1
    2158:	402081bb          	subw	s1,ra,s0
    215c:	ffe00e93          	li	t3,-2
    2160:	00e00e13          	li	t2,14
    2164:	37d19263          	bne	s1,t3,24c8 <fail>

0000000000002168 <test_15>:
    2168:	fff00093          	li	ra,-1
    216c:	fff00113          	li	s0,-1
    2170:	402081bb          	subw	s1,ra,s0
    2174:	00000e93          	li	t3,0
    2178:	00f00e13          	li	t2,15
    217c:	35d19663          	bne	s1,t3,24c8 <fail>

0000000000002180 <test_16>:
    2180:	00d00093          	li	ra,13
    2184:	00b00113          	li	s0,11
    2188:	402080bb          	subw	ra,ra,s0
    218c:	00200e93          	li	t3,2
    2190:	01000e13          	li	t2,16
    2194:	33d09a63          	bne	ra,t3,24c8 <fail>

0000000000002198 <test_17>:
    2198:	00e00093          	li	ra,14
    219c:	00b00113          	li	s0,11
    21a0:	4020813b          	subw	s0,ra,s0
    21a4:	00300e93          	li	t3,3
    21a8:	01100e13          	li	t2,17
    21ac:	31d11e63          	bne	s0,t3,24c8 <fail>

00000000000021b0 <test_18>:
    21b0:	00d00093          	li	ra,13
    21b4:	401080bb          	subw	ra,ra,ra
    21b8:	00000e93          	li	t3,0
    21bc:	01200e13          	li	t2,18
    21c0:	31d09463          	bne	ra,t3,24c8 <fail>

00000000000021c4 <test_19>:
    21c4:	00000213          	li	s2,0
    21c8:	00d00093          	li	ra,13
    21cc:	00b00113          	li	s0,11
    21d0:	402081bb          	subw	s1,ra,s0
    21d4:	00018313          	mv	s4,s1
    21d8:	00120213          	addi	s2,s2,1
    21dc:	00200293          	li	s3,2
    21e0:	fe5214e3          	bne	s2,s3,21c8 <test_19+0x4>
    21e4:	00200e93          	li	t3,2
    21e8:	01300e13          	li	t2,19
    21ec:	2dd31e63          	bne	s4,t3,24c8 <fail>

00000000000021f0 <test_20>:
    21f0:	00000213          	li	s2,0
    21f4:	00e00093          	li	ra,14
    21f8:	00b00113          	li	s0,11
    21fc:	402081bb          	subw	s1,ra,s0
    2200:	00000013          	nop
    2204:	00018313          	mv	s4,s1
    2208:	00120213          	addi	s2,s2,1
    220c:	00200293          	li	s3,2
    2210:	fe5212e3          	bne	s2,s3,21f4 <test_20+0x4>
    2214:	00300e93          	li	t3,3
    2218:	01400e13          	li	t2,20
    221c:	2bd31663          	bne	s4,t3,24c8 <fail>

0000000000002220 <test_21>:
    2220:	00000213          	li	s2,0
    2224:	00f00093          	li	ra,15
    2228:	00b00113          	li	s0,11
    222c:	402081bb          	subw	s1,ra,s0
    2230:	00000013          	nop
    2234:	00000013          	nop
    2238:	00018313          	mv	s4,s1
    223c:	00120213          	addi	s2,s2,1
    2240:	00200293          	li	s3,2
    2244:	fe5210e3          	bne	s2,s3,2224 <test_21+0x4>
    2248:	00400e93          	li	t3,4
    224c:	01500e13          	li	t2,21
    2250:	27d31c63          	bne	s4,t3,24c8 <fail>

0000000000002254 <test_22>:
    2254:	00000213          	li	s2,0
    2258:	00d00093          	li	ra,13
    225c:	00b00113          	li	s0,11
    2260:	402081bb          	subw	s1,ra,s0
    2264:	00120213          	addi	s2,s2,1
    2268:	00200293          	li	s3,2
    226c:	fe5216e3          	bne	s2,s3,2258 <test_22+0x4>
    2270:	00200e93          	li	t3,2
    2274:	01600e13          	li	t2,22
    2278:	25d19863          	bne	s1,t3,24c8 <fail>

000000000000227c <test_23>:
    227c:	00000213          	li	s2,0
    2280:	00e00093          	li	ra,14
    2284:	00b00113          	li	s0,11
    2288:	00000013          	nop
    228c:	402081bb          	subw	s1,ra,s0
    2290:	00120213          	addi	s2,s2,1
    2294:	00200293          	li	s3,2
    2298:	fe5214e3          	bne	s2,s3,2280 <test_23+0x4>
    229c:	00300e93          	li	t3,3
    22a0:	01700e13          	li	t2,23
    22a4:	23d19263          	bne	s1,t3,24c8 <fail>

00000000000022a8 <test_24>:
    22a8:	00000213          	li	s2,0
    22ac:	00f00093          	li	ra,15
    22b0:	00b00113          	li	s0,11
    22b4:	00000013          	nop
    22b8:	00000013          	nop
    22bc:	402081bb          	subw	s1,ra,s0
    22c0:	00120213          	addi	s2,s2,1
    22c4:	00200293          	li	s3,2
    22c8:	fe5212e3          	bne	s2,s3,22ac <test_24+0x4>
    22cc:	00400e93          	li	t3,4
    22d0:	01800e13          	li	t2,24
    22d4:	1fd19a63          	bne	s1,t3,24c8 <fail>

00000000000022d8 <test_25>:
    22d8:	00000213          	li	s2,0
    22dc:	00d00093          	li	ra,13
    22e0:	00000013          	nop
    22e4:	00b00113          	li	s0,11
    22e8:	402081bb          	subw	s1,ra,s0
    22ec:	00120213          	addi	s2,s2,1
    22f0:	00200293          	li	s3,2
    22f4:	fe5214e3          	bne	s2,s3,22dc <test_25+0x4>
    22f8:	00200e93          	li	t3,2
    22fc:	01900e13          	li	t2,25
    2300:	1dd19463          	bne	s1,t3,24c8 <fail>

0000000000002304 <test_26>:
    2304:	00000213          	li	s2,0
    2308:	00e00093          	li	ra,14
    230c:	00000013          	nop
    2310:	00b00113          	li	s0,11
    2314:	00000013          	nop
    2318:	402081bb          	subw	s1,ra,s0
    231c:	00120213          	addi	s2,s2,1
    2320:	00200293          	li	s3,2
    2324:	fe5212e3          	bne	s2,s3,2308 <test_26+0x4>
    2328:	00300e93          	li	t3,3
    232c:	01a00e13          	li	t2,26
    2330:	19d19c63          	bne	s1,t3,24c8 <fail>

0000000000002334 <test_27>:
    2334:	00000213          	li	s2,0
    2338:	00f00093          	li	ra,15
    233c:	00000013          	nop
    2340:	00000013          	nop
    2344:	00b00113          	li	s0,11
    2348:	402081bb          	subw	s1,ra,s0
    234c:	00120213          	addi	s2,s2,1
    2350:	00200293          	li	s3,2
    2354:	fe5212e3          	bne	s2,s3,2338 <test_27+0x4>
    2358:	00400e93          	li	t3,4
    235c:	01b00e13          	li	t2,27
    2360:	17d19463          	bne	s1,t3,24c8 <fail>

0000000000002364 <test_28>:
    2364:	00000213          	li	s2,0
    2368:	00b00113          	li	s0,11
    236c:	00d00093          	li	ra,13
    2370:	402081bb          	subw	s1,ra,s0
    2374:	00120213          	addi	s2,s2,1
    2378:	00200293          	li	s3,2
    237c:	fe5216e3          	bne	s2,s3,2368 <test_28+0x4>
    2380:	00200e93          	li	t3,2
    2384:	01c00e13          	li	t2,28
    2388:	15d19063          	bne	s1,t3,24c8 <fail>

000000000000238c <test_29>:
    238c:	00000213          	li	s2,0
    2390:	00b00113          	li	s0,11
    2394:	00e00093          	li	ra,14
    2398:	00000013          	nop
    239c:	402081bb          	subw	s1,ra,s0
    23a0:	00120213          	addi	s2,s2,1
    23a4:	00200293          	li	s3,2
    23a8:	fe5214e3          	bne	s2,s3,2390 <test_29+0x4>
    23ac:	00300e93          	li	t3,3
    23b0:	01d00e13          	li	t2,29
    23b4:	11d19a63          	bne	s1,t3,24c8 <fail>

00000000000023b8 <test_30>:
    23b8:	00000213          	li	s2,0
    23bc:	00b00113          	li	s0,11
    23c0:	00f00093          	li	ra,15
    23c4:	00000013          	nop
    23c8:	00000013          	nop
    23cc:	402081bb          	subw	s1,ra,s0
    23d0:	00120213          	addi	s2,s2,1
    23d4:	00200293          	li	s3,2
    23d8:	fe5212e3          	bne	s2,s3,23bc <test_30+0x4>
    23dc:	00400e93          	li	t3,4
    23e0:	01e00e13          	li	t2,30
    23e4:	0fd19263          	bne	s1,t3,24c8 <fail>

00000000000023e8 <test_31>:
    23e8:	00000213          	li	s2,0
    23ec:	00b00113          	li	s0,11
    23f0:	00000013          	nop
    23f4:	00d00093          	li	ra,13
    23f8:	402081bb          	subw	s1,ra,s0
    23fc:	00120213          	addi	s2,s2,1
    2400:	00200293          	li	s3,2
    2404:	fe5214e3          	bne	s2,s3,23ec <test_31+0x4>
    2408:	00200e93          	li	t3,2
    240c:	01f00e13          	li	t2,31
    2410:	0bd19c63          	bne	s1,t3,24c8 <fail>

0000000000002414 <test_32>:
    2414:	00000213          	li	s2,0
    2418:	00b00113          	li	s0,11
    241c:	00000013          	nop
    2420:	00e00093          	li	ra,14
    2424:	00000013          	nop
    2428:	402081bb          	subw	s1,ra,s0
    242c:	00120213          	addi	s2,s2,1
    2430:	00200293          	li	s3,2
    2434:	fe5212e3          	bne	s2,s3,2418 <test_32+0x4>
    2438:	00300e93          	li	t3,3
    243c:	02000e13          	li	t2,32
    2440:	09d19463          	bne	s1,t3,24c8 <fail>

0000000000002444 <test_33>:
    2444:	00000213          	li	s2,0
    2448:	00b00113          	li	s0,11
    244c:	00000013          	nop
    2450:	00000013          	nop
    2454:	00f00093          	li	ra,15
    2458:	402081bb          	subw	s1,ra,s0
    245c:	00120213          	addi	s2,s2,1
    2460:	00200293          	li	s3,2
    2464:	fe5212e3          	bne	s2,s3,2448 <test_33+0x4>
    2468:	00400e93          	li	t3,4
    246c:	02100e13          	li	t2,33
    2470:	05d19c63          	bne	s1,t3,24c8 <fail>

0000000000002474 <test_34>:
    2474:	ff100093          	li	ra,-15
    2478:	4010013b          	negw	s0,ra
    247c:	00f00e93          	li	t3,15
    2480:	02200e13          	li	t2,34
    2484:	05d11263          	bne	s0,t3,24c8 <fail>

0000000000002488 <test_35>:
    2488:	02000093          	li	ra,32
    248c:	4000813b          	subw	s0,ra,zero
    2490:	02000e93          	li	t3,32
    2494:	02300e13          	li	t2,35
    2498:	03d11863          	bne	s0,t3,24c8 <fail>

000000000000249c <test_36>:
    249c:	400000bb          	negw	ra,zero
    24a0:	00000e93          	li	t3,0
    24a4:	02400e13          	li	t2,36
    24a8:	03d09063          	bne	ra,t3,24c8 <fail>

00000000000024ac <test_37>:
    24ac:	01000093          	li	ra,16
    24b0:	01e00113          	li	s0,30
    24b4:	4020803b          	subw	zero,ra,s0
    24b8:	00000e93          	li	t3,0
    24bc:	02500e13          	li	t2,37
    24c0:	01d01463          	bne	zero,t3,24c8 <fail>
    24c4:	01c01e63          	bne	zero,t2,24e0 <pass>

00000000000024c8 <fail>:
    24c8:	0ff0000f          	fence
    24cc:	000e0863          	beqz	t2,24dc <fail+0x14>
    24d0:	001e1e13          	slli	t2,t2,0x1
    24d4:	001e6e13          	ori	t2,t2,1
    24d8:	51ee1073          	csrw	tohost,t2
    24dc:	00000063          	b	24dc <fail+0x14>

00000000000024e0 <pass>:
    24e0:	0ff0000f          	fence
    24e4:	51e0d073          	csrwi	tohost,1
    24e8:	00000063          	b	24e8 <pass+0x8>
    24ec:	00000013          	nop
