
rv64ui-p-sllw:     file format elf64-littleriscv


Disassembly of section .text:

0000000000002000 <_start>:
    2000:	50b02973          	csrr	a0,hartid
    2004:	00091063          	bnez	a0,2004 <_start+0x4>

0000000000002008 <test_2>:
    2008:	00100093          	li	ra,1
    200c:	00000113          	li	s0,0
    2010:	002091bb          	sllw	s1,ra,s0
    2014:	00100e93          	li	t3,1
    2018:	00200e13          	li	t2,2
    201c:	55d19c63          	bne	s1,t3,2574 <fail>

0000000000002020 <test_3>:
    2020:	00100093          	li	ra,1
    2024:	00100113          	li	s0,1
    2028:	002091bb          	sllw	s1,ra,s0
    202c:	00200e93          	li	t3,2
    2030:	00300e13          	li	t2,3
    2034:	55d19063          	bne	s1,t3,2574 <fail>

0000000000002038 <test_4>:
    2038:	00100093          	li	ra,1
    203c:	00700113          	li	s0,7
    2040:	002091bb          	sllw	s1,ra,s0
    2044:	08000e93          	li	t3,128
    2048:	00400e13          	li	t2,4
    204c:	53d19463          	bne	s1,t3,2574 <fail>

0000000000002050 <test_5>:
    2050:	00100093          	li	ra,1
    2054:	00e00113          	li	s0,14
    2058:	002091bb          	sllw	s1,ra,s0
    205c:	00004eb7          	lui	t3,0x4
    2060:	00500e13          	li	t2,5
    2064:	51d19863          	bne	s1,t3,2574 <fail>

0000000000002068 <test_6>:
    2068:	00100093          	li	ra,1
    206c:	01f00113          	li	s0,31
    2070:	002091bb          	sllw	s1,ra,s0
    2074:	80000eb7          	lui	t3,0x80000
    2078:	00600e13          	li	t2,6
    207c:	4fd19c63          	bne	s1,t3,2574 <fail>

0000000000002080 <test_7>:
    2080:	fff00093          	li	ra,-1
    2084:	00000113          	li	s0,0
    2088:	002091bb          	sllw	s1,ra,s0
    208c:	fff00e93          	li	t3,-1
    2090:	00700e13          	li	t2,7
    2094:	4fd19063          	bne	s1,t3,2574 <fail>

0000000000002098 <test_8>:
    2098:	fff00093          	li	ra,-1
    209c:	00100113          	li	s0,1
    20a0:	002091bb          	sllw	s1,ra,s0
    20a4:	ffe00e93          	li	t3,-2
    20a8:	00800e13          	li	t2,8
    20ac:	4dd19463          	bne	s1,t3,2574 <fail>

00000000000020b0 <test_9>:
    20b0:	fff00093          	li	ra,-1
    20b4:	00700113          	li	s0,7
    20b8:	002091bb          	sllw	s1,ra,s0
    20bc:	f8000e93          	li	t3,-128
    20c0:	00900e13          	li	t2,9
    20c4:	4bd19863          	bne	s1,t3,2574 <fail>

00000000000020c8 <test_10>:
    20c8:	fff00093          	li	ra,-1
    20cc:	00e00113          	li	s0,14
    20d0:	002091bb          	sllw	s1,ra,s0
    20d4:	ffffceb7          	lui	t3,0xffffc
    20d8:	00a00e13          	li	t2,10
    20dc:	49d19c63          	bne	s1,t3,2574 <fail>

00000000000020e0 <test_11>:
    20e0:	fff00093          	li	ra,-1
    20e4:	01f00113          	li	s0,31
    20e8:	002091bb          	sllw	s1,ra,s0
    20ec:	80000eb7          	lui	t3,0x80000
    20f0:	00b00e13          	li	t2,11
    20f4:	49d19063          	bne	s1,t3,2574 <fail>

00000000000020f8 <test_12>:
    20f8:	212120b7          	lui	ra,0x21212
    20fc:	1210809b          	addiw	ra,ra,289
    2100:	00000113          	li	s0,0
    2104:	002091bb          	sllw	s1,ra,s0
    2108:	21212eb7          	lui	t3,0x21212
    210c:	121e8e9b          	addiw	t3,t3,289
    2110:	00c00e13          	li	t2,12
    2114:	47d19063          	bne	s1,t3,2574 <fail>

0000000000002118 <test_13>:
    2118:	212120b7          	lui	ra,0x21212
    211c:	1210809b          	addiw	ra,ra,289
    2120:	00100113          	li	s0,1
    2124:	002091bb          	sllw	s1,ra,s0
    2128:	42424eb7          	lui	t3,0x42424
    212c:	242e8e9b          	addiw	t3,t3,578
    2130:	00d00e13          	li	t2,13
    2134:	45d19063          	bne	s1,t3,2574 <fail>

0000000000002138 <test_14>:
    2138:	212120b7          	lui	ra,0x21212
    213c:	1210809b          	addiw	ra,ra,289
    2140:	00700113          	li	s0,7
    2144:	002091bb          	sllw	s1,ra,s0
    2148:	90909eb7          	lui	t3,0x90909
    214c:	080e8e9b          	addiw	t3,t3,128
    2150:	00e00e13          	li	t2,14
    2154:	43d19063          	bne	s1,t3,2574 <fail>

0000000000002158 <test_15>:
    2158:	212120b7          	lui	ra,0x21212
    215c:	1210809b          	addiw	ra,ra,289
    2160:	00e00113          	li	s0,14
    2164:	002091bb          	sllw	s1,ra,s0
    2168:	48484eb7          	lui	t3,0x48484
    216c:	00f00e13          	li	t2,15
    2170:	41d19263          	bne	s1,t3,2574 <fail>

0000000000002174 <test_16>:
    2174:	212120b7          	lui	ra,0x21212
    2178:	1210809b          	addiw	ra,ra,289
    217c:	01f00113          	li	s0,31
    2180:	002091bb          	sllw	s1,ra,s0
    2184:	80000eb7          	lui	t3,0x80000
    2188:	01000e13          	li	t2,16
    218c:	3fd19463          	bne	s1,t3,2574 <fail>

0000000000002190 <test_17>:
    2190:	212120b7          	lui	ra,0x21212
    2194:	1210809b          	addiw	ra,ra,289
    2198:	fe000113          	li	s0,-32
    219c:	002091bb          	sllw	s1,ra,s0
    21a0:	21212eb7          	lui	t3,0x21212
    21a4:	121e8e9b          	addiw	t3,t3,289
    21a8:	01100e13          	li	t2,17
    21ac:	3dd19463          	bne	s1,t3,2574 <fail>

00000000000021b0 <test_18>:
    21b0:	212120b7          	lui	ra,0x21212
    21b4:	1210809b          	addiw	ra,ra,289
    21b8:	fe100113          	li	s0,-31
    21bc:	002091bb          	sllw	s1,ra,s0
    21c0:	42424eb7          	lui	t3,0x42424
    21c4:	242e8e9b          	addiw	t3,t3,578
    21c8:	01200e13          	li	t2,18
    21cc:	3bd19463          	bne	s1,t3,2574 <fail>

00000000000021d0 <test_19>:
    21d0:	212120b7          	lui	ra,0x21212
    21d4:	1210809b          	addiw	ra,ra,289
    21d8:	fe700113          	li	s0,-25
    21dc:	002091bb          	sllw	s1,ra,s0
    21e0:	90909eb7          	lui	t3,0x90909
    21e4:	080e8e9b          	addiw	t3,t3,128
    21e8:	01300e13          	li	t2,19
    21ec:	39d19463          	bne	s1,t3,2574 <fail>

00000000000021f0 <test_20>:
    21f0:	212120b7          	lui	ra,0x21212
    21f4:	1210809b          	addiw	ra,ra,289
    21f8:	fee00113          	li	s0,-18
    21fc:	002091bb          	sllw	s1,ra,s0
    2200:	48484eb7          	lui	t3,0x48484
    2204:	01400e13          	li	t2,20
    2208:	37d19663          	bne	s1,t3,2574 <fail>

000000000000220c <test_21>:
    220c:	212120b7          	lui	ra,0x21212
    2210:	1210809b          	addiw	ra,ra,289
    2214:	fff00113          	li	s0,-1
    2218:	002091bb          	sllw	s1,ra,s0
    221c:	80000eb7          	lui	t3,0x80000
    2220:	01500e13          	li	t2,21
    2224:	35d19863          	bne	s1,t3,2574 <fail>

0000000000002228 <test_22>:
    2228:	00100093          	li	ra,1
    222c:	00700113          	li	s0,7
    2230:	002090bb          	sllw	ra,ra,s0
    2234:	08000e93          	li	t3,128
    2238:	01600e13          	li	t2,22
    223c:	33d09c63          	bne	ra,t3,2574 <fail>

0000000000002240 <test_23>:
    2240:	00100093          	li	ra,1
    2244:	00e00113          	li	s0,14
    2248:	0020913b          	sllw	s0,ra,s0
    224c:	00004eb7          	lui	t3,0x4
    2250:	01700e13          	li	t2,23
    2254:	33d11063          	bne	s0,t3,2574 <fail>

0000000000002258 <test_24>:
    2258:	00300093          	li	ra,3
    225c:	001090bb          	sllw	ra,ra,ra
    2260:	01800e93          	li	t3,24
    2264:	01800e13          	li	t2,24
    2268:	31d09663          	bne	ra,t3,2574 <fail>

000000000000226c <test_25>:
    226c:	00000213          	li	s2,0
    2270:	00100093          	li	ra,1
    2274:	00700113          	li	s0,7
    2278:	002091bb          	sllw	s1,ra,s0
    227c:	00018313          	mv	s4,s1
    2280:	00120213          	addi	s2,s2,1
    2284:	00200293          	li	s3,2
    2288:	fe5214e3          	bne	s2,s3,2270 <test_25+0x4>
    228c:	08000e93          	li	t3,128
    2290:	01900e13          	li	t2,25
    2294:	2fd31063          	bne	s4,t3,2574 <fail>

0000000000002298 <test_26>:
    2298:	00000213          	li	s2,0
    229c:	00100093          	li	ra,1
    22a0:	00e00113          	li	s0,14
    22a4:	002091bb          	sllw	s1,ra,s0
    22a8:	00000013          	nop
    22ac:	00018313          	mv	s4,s1
    22b0:	00120213          	addi	s2,s2,1
    22b4:	00200293          	li	s3,2
    22b8:	fe5212e3          	bne	s2,s3,229c <test_26+0x4>
    22bc:	00004eb7          	lui	t3,0x4
    22c0:	01a00e13          	li	t2,26
    22c4:	2bd31863          	bne	s4,t3,2574 <fail>

00000000000022c8 <test_27>:
    22c8:	00000213          	li	s2,0
    22cc:	00100093          	li	ra,1
    22d0:	01f00113          	li	s0,31
    22d4:	002091bb          	sllw	s1,ra,s0
    22d8:	00000013          	nop
    22dc:	00000013          	nop
    22e0:	00018313          	mv	s4,s1
    22e4:	00120213          	addi	s2,s2,1
    22e8:	00200293          	li	s3,2
    22ec:	fe5210e3          	bne	s2,s3,22cc <test_27+0x4>
    22f0:	80000eb7          	lui	t3,0x80000
    22f4:	01b00e13          	li	t2,27
    22f8:	27d31e63          	bne	s4,t3,2574 <fail>

00000000000022fc <test_28>:
    22fc:	00000213          	li	s2,0
    2300:	00100093          	li	ra,1
    2304:	00700113          	li	s0,7
    2308:	002091bb          	sllw	s1,ra,s0
    230c:	00120213          	addi	s2,s2,1
    2310:	00200293          	li	s3,2
    2314:	fe5216e3          	bne	s2,s3,2300 <test_28+0x4>
    2318:	08000e93          	li	t3,128
    231c:	01c00e13          	li	t2,28
    2320:	25d19a63          	bne	s1,t3,2574 <fail>

0000000000002324 <test_29>:
    2324:	00000213          	li	s2,0
    2328:	00100093          	li	ra,1
    232c:	00e00113          	li	s0,14
    2330:	00000013          	nop
    2334:	002091bb          	sllw	s1,ra,s0
    2338:	00120213          	addi	s2,s2,1
    233c:	00200293          	li	s3,2
    2340:	fe5214e3          	bne	s2,s3,2328 <test_29+0x4>
    2344:	00004eb7          	lui	t3,0x4
    2348:	01d00e13          	li	t2,29
    234c:	23d19463          	bne	s1,t3,2574 <fail>

0000000000002350 <test_30>:
    2350:	00000213          	li	s2,0
    2354:	00100093          	li	ra,1
    2358:	01f00113          	li	s0,31
    235c:	00000013          	nop
    2360:	00000013          	nop
    2364:	002091bb          	sllw	s1,ra,s0
    2368:	00120213          	addi	s2,s2,1
    236c:	00200293          	li	s3,2
    2370:	fe5212e3          	bne	s2,s3,2354 <test_30+0x4>
    2374:	80000eb7          	lui	t3,0x80000
    2378:	01e00e13          	li	t2,30
    237c:	1fd19c63          	bne	s1,t3,2574 <fail>

0000000000002380 <test_31>:
    2380:	00000213          	li	s2,0
    2384:	00100093          	li	ra,1
    2388:	00000013          	nop
    238c:	00700113          	li	s0,7
    2390:	002091bb          	sllw	s1,ra,s0
    2394:	00120213          	addi	s2,s2,1
    2398:	00200293          	li	s3,2
    239c:	fe5214e3          	bne	s2,s3,2384 <test_31+0x4>
    23a0:	08000e93          	li	t3,128
    23a4:	01f00e13          	li	t2,31
    23a8:	1dd19663          	bne	s1,t3,2574 <fail>

00000000000023ac <test_32>:
    23ac:	00000213          	li	s2,0
    23b0:	00100093          	li	ra,1
    23b4:	00000013          	nop
    23b8:	00e00113          	li	s0,14
    23bc:	00000013          	nop
    23c0:	002091bb          	sllw	s1,ra,s0
    23c4:	00120213          	addi	s2,s2,1
    23c8:	00200293          	li	s3,2
    23cc:	fe5212e3          	bne	s2,s3,23b0 <test_32+0x4>
    23d0:	00004eb7          	lui	t3,0x4
    23d4:	02000e13          	li	t2,32
    23d8:	19d19e63          	bne	s1,t3,2574 <fail>

00000000000023dc <test_33>:
    23dc:	00000213          	li	s2,0
    23e0:	00100093          	li	ra,1
    23e4:	00000013          	nop
    23e8:	00000013          	nop
    23ec:	01f00113          	li	s0,31
    23f0:	002091bb          	sllw	s1,ra,s0
    23f4:	00120213          	addi	s2,s2,1
    23f8:	00200293          	li	s3,2
    23fc:	fe5212e3          	bne	s2,s3,23e0 <test_33+0x4>
    2400:	80000eb7          	lui	t3,0x80000
    2404:	02100e13          	li	t2,33
    2408:	17d19663          	bne	s1,t3,2574 <fail>

000000000000240c <test_34>:
    240c:	00000213          	li	s2,0
    2410:	00700113          	li	s0,7
    2414:	00100093          	li	ra,1
    2418:	002091bb          	sllw	s1,ra,s0
    241c:	00120213          	addi	s2,s2,1
    2420:	00200293          	li	s3,2
    2424:	fe5216e3          	bne	s2,s3,2410 <test_34+0x4>
    2428:	08000e93          	li	t3,128
    242c:	02200e13          	li	t2,34
    2430:	15d19263          	bne	s1,t3,2574 <fail>

0000000000002434 <test_35>:
    2434:	00000213          	li	s2,0
    2438:	00e00113          	li	s0,14
    243c:	00100093          	li	ra,1
    2440:	00000013          	nop
    2444:	002091bb          	sllw	s1,ra,s0
    2448:	00120213          	addi	s2,s2,1
    244c:	00200293          	li	s3,2
    2450:	fe5214e3          	bne	s2,s3,2438 <test_35+0x4>
    2454:	00004eb7          	lui	t3,0x4
    2458:	02300e13          	li	t2,35
    245c:	11d19c63          	bne	s1,t3,2574 <fail>

0000000000002460 <test_36>:
    2460:	00000213          	li	s2,0
    2464:	01f00113          	li	s0,31
    2468:	00100093          	li	ra,1
    246c:	00000013          	nop
    2470:	00000013          	nop
    2474:	002091bb          	sllw	s1,ra,s0
    2478:	00120213          	addi	s2,s2,1
    247c:	00200293          	li	s3,2
    2480:	fe5212e3          	bne	s2,s3,2464 <test_36+0x4>
    2484:	80000eb7          	lui	t3,0x80000
    2488:	02400e13          	li	t2,36
    248c:	0fd19463          	bne	s1,t3,2574 <fail>

0000000000002490 <test_37>:
    2490:	00000213          	li	s2,0
    2494:	00700113          	li	s0,7
    2498:	00000013          	nop
    249c:	00100093          	li	ra,1
    24a0:	002091bb          	sllw	s1,ra,s0
    24a4:	00120213          	addi	s2,s2,1
    24a8:	00200293          	li	s3,2
    24ac:	fe5214e3          	bne	s2,s3,2494 <test_37+0x4>
    24b0:	08000e93          	li	t3,128
    24b4:	02500e13          	li	t2,37
    24b8:	0bd19e63          	bne	s1,t3,2574 <fail>

00000000000024bc <test_38>:
    24bc:	00000213          	li	s2,0
    24c0:	00e00113          	li	s0,14
    24c4:	00000013          	nop
    24c8:	00100093          	li	ra,1
    24cc:	00000013          	nop
    24d0:	002091bb          	sllw	s1,ra,s0
    24d4:	00120213          	addi	s2,s2,1
    24d8:	00200293          	li	s3,2
    24dc:	fe5212e3          	bne	s2,s3,24c0 <test_38+0x4>
    24e0:	00004eb7          	lui	t3,0x4
    24e4:	02600e13          	li	t2,38
    24e8:	09d19663          	bne	s1,t3,2574 <fail>

00000000000024ec <test_39>:
    24ec:	00000213          	li	s2,0
    24f0:	01f00113          	li	s0,31
    24f4:	00000013          	nop
    24f8:	00000013          	nop
    24fc:	00100093          	li	ra,1
    2500:	002091bb          	sllw	s1,ra,s0
    2504:	00120213          	addi	s2,s2,1
    2508:	00200293          	li	s3,2
    250c:	fe5212e3          	bne	s2,s3,24f0 <test_39+0x4>
    2510:	80000eb7          	lui	t3,0x80000
    2514:	02700e13          	li	t2,39
    2518:	05d19e63          	bne	s1,t3,2574 <fail>

000000000000251c <test_40>:
    251c:	00f00093          	li	ra,15
    2520:	0010113b          	sllw	s0,zero,ra
    2524:	00000e93          	li	t3,0
    2528:	02800e13          	li	t2,40
    252c:	05d11463          	bne	s0,t3,2574 <fail>

0000000000002530 <test_41>:
    2530:	02000093          	li	ra,32
    2534:	0000913b          	sllw	s0,ra,zero
    2538:	02000e93          	li	t3,32
    253c:	02900e13          	li	t2,41
    2540:	03d11a63          	bne	s0,t3,2574 <fail>

0000000000002544 <test_42>:
    2544:	000010bb          	sllw	ra,zero,zero
    2548:	00000e93          	li	t3,0
    254c:	02a00e13          	li	t2,42
    2550:	03d09263          	bne	ra,t3,2574 <fail>

0000000000002554 <test_43>:
    2554:	40000093          	li	ra,1024
    2558:	00001137          	lui	s0,0x1
    255c:	8001011b          	addiw	s0,s0,-2048
    2560:	0020903b          	sllw	zero,ra,s0
    2564:	00000e93          	li	t3,0
    2568:	02b00e13          	li	t2,43
    256c:	01d01463          	bne	zero,t3,2574 <fail>
    2570:	01c01e63          	bne	zero,t2,258c <pass>

0000000000002574 <fail>:
    2574:	0ff0000f          	fence
    2578:	000e0863          	beqz	t2,2588 <fail+0x14>
    257c:	001e1e13          	slli	t2,t2,0x1
    2580:	001e6e13          	ori	t2,t2,1
    2584:	51ee1073          	csrw	tohost,t2
    2588:	00000063          	b	2588 <fail+0x14>

000000000000258c <pass>:
    258c:	0ff0000f          	fence
    2590:	51e0d073          	csrwi	tohost,1
    2594:	00000063          	b	2594 <pass+0x8>
    2598:	00000013          	nop
    259c:	00000013          	nop
