
rv64ui-p-addiw:     file format elf64-littleriscv


Disassembly of section .text:

0000000000002000 <_start>:
    2000:	50b02973          	csrr	a0,hartid
    2004:	00091063          	bnez	a0,2004 <_start+0x4>

0000000000002008 <test_2>:
    2008:	00000093          	li	ra,0
    200c:	0000819b          	sext.w	s1,ra
    2010:	00000e93          	li	t3,0
    2014:	00200e13          	li	t2,2
    2018:	27d19c63          	bne	s1,t3,2290 <fail>

000000000000201c <test_3>:
    201c:	00100093          	li	ra,1
    2020:	0010819b          	addiw	s1,ra,1
    2024:	00200e93          	li	t3,2
    2028:	00300e13          	li	t2,3
    202c:	27d19263          	bne	s1,t3,2290 <fail>

0000000000002030 <test_4>:
    2030:	00300093          	li	ra,3
    2034:	0070819b          	addiw	s1,ra,7
    2038:	00a00e93          	li	t3,10
    203c:	00400e13          	li	t2,4
    2040:	25d19863          	bne	s1,t3,2290 <fail>

0000000000002044 <test_5>:
    2044:	00000093          	li	ra,0
    2048:	8000819b          	addiw	s1,ra,-2048
    204c:	80000e93          	li	t3,-2048
    2050:	00500e13          	li	t2,5
    2054:	23d19e63          	bne	s1,t3,2290 <fail>

0000000000002058 <test_6>:
    2058:	800000b7          	lui	ra,0x80000
    205c:	0000819b          	sext.w	s1,ra
    2060:	80000eb7          	lui	t3,0x80000
    2064:	00600e13          	li	t2,6
    2068:	23d19463          	bne	s1,t3,2290 <fail>

000000000000206c <test_7>:
    206c:	800000b7          	lui	ra,0x80000
    2070:	8000819b          	addiw	s1,ra,-2048
    2074:	80000eb7          	lui	t3,0x80000
    2078:	800e8e9b          	addiw	t3,t3,-2048
    207c:	00700e13          	li	t2,7
    2080:	21d19863          	bne	s1,t3,2290 <fail>

0000000000002084 <test_8>:
    2084:	00000093          	li	ra,0
    2088:	7ff0819b          	addiw	s1,ra,2047
    208c:	7ff00e93          	li	t3,2047
    2090:	00800e13          	li	t2,8
    2094:	1fd19e63          	bne	s1,t3,2290 <fail>

0000000000002098 <test_9>:
    2098:	800000b7          	lui	ra,0x80000
    209c:	fff0809b          	addiw	ra,ra,-1
    20a0:	0000819b          	sext.w	s1,ra
    20a4:	80000eb7          	lui	t3,0x80000
    20a8:	fffe8e9b          	addiw	t3,t3,-1
    20ac:	00900e13          	li	t2,9
    20b0:	1fd19063          	bne	s1,t3,2290 <fail>

00000000000020b4 <test_10>:
    20b4:	800000b7          	lui	ra,0x80000
    20b8:	fff0809b          	addiw	ra,ra,-1
    20bc:	7ff0819b          	addiw	s1,ra,2047
    20c0:	80000eb7          	lui	t3,0x80000
    20c4:	7fee8e9b          	addiw	t3,t3,2046
    20c8:	00a00e13          	li	t2,10
    20cc:	1dd19263          	bne	s1,t3,2290 <fail>

00000000000020d0 <test_11>:
    20d0:	800000b7          	lui	ra,0x80000
    20d4:	7ff0819b          	addiw	s1,ra,2047
    20d8:	80000eb7          	lui	t3,0x80000
    20dc:	7ffe8e9b          	addiw	t3,t3,2047
    20e0:	00b00e13          	li	t2,11
    20e4:	1bd19663          	bne	s1,t3,2290 <fail>

00000000000020e8 <test_12>:
    20e8:	800000b7          	lui	ra,0x80000
    20ec:	fff0809b          	addiw	ra,ra,-1
    20f0:	8000819b          	addiw	s1,ra,-2048
    20f4:	7ffffeb7          	lui	t3,0x7ffff
    20f8:	7ffe8e9b          	addiw	t3,t3,2047
    20fc:	00c00e13          	li	t2,12
    2100:	19d19863          	bne	s1,t3,2290 <fail>

0000000000002104 <test_13>:
    2104:	00000093          	li	ra,0
    2108:	fff0819b          	addiw	s1,ra,-1
    210c:	fff00e93          	li	t3,-1
    2110:	00d00e13          	li	t2,13
    2114:	17d19e63          	bne	s1,t3,2290 <fail>

0000000000002118 <test_14>:
    2118:	fff00093          	li	ra,-1
    211c:	0010819b          	addiw	s1,ra,1
    2120:	00000e93          	li	t3,0
    2124:	00e00e13          	li	t2,14
    2128:	17d19463          	bne	s1,t3,2290 <fail>

000000000000212c <test_15>:
    212c:	fff00093          	li	ra,-1
    2130:	fff0819b          	addiw	s1,ra,-1
    2134:	ffe00e93          	li	t3,-2
    2138:	00f00e13          	li	t2,15
    213c:	15d19a63          	bne	s1,t3,2290 <fail>

0000000000002140 <test_16>:
    2140:	800000b7          	lui	ra,0x80000
    2144:	fff0809b          	addiw	ra,ra,-1
    2148:	0010819b          	addiw	s1,ra,1
    214c:	80000eb7          	lui	t3,0x80000
    2150:	01000e13          	li	t2,16
    2154:	13d19e63          	bne	s1,t3,2290 <fail>

0000000000002158 <test_17>:
    2158:	00d00093          	li	ra,13
    215c:	00b0809b          	addiw	ra,ra,11
    2160:	01800e93          	li	t3,24
    2164:	01100e13          	li	t2,17
    2168:	13d09463          	bne	ra,t3,2290 <fail>

000000000000216c <test_18>:
    216c:	00000213          	li	s2,0
    2170:	00d00093          	li	ra,13
    2174:	00b0819b          	addiw	s1,ra,11
    2178:	00018313          	mv	s4,s1
    217c:	00120213          	addi	s2,s2,1
    2180:	00200293          	li	s3,2
    2184:	fe5216e3          	bne	s2,s3,2170 <test_18+0x4>
    2188:	01800e93          	li	t3,24
    218c:	01200e13          	li	t2,18
    2190:	11d31063          	bne	s4,t3,2290 <fail>

0000000000002194 <test_19>:
    2194:	00000213          	li	s2,0
    2198:	00d00093          	li	ra,13
    219c:	00a0819b          	addiw	s1,ra,10
    21a0:	00000013          	nop
    21a4:	00018313          	mv	s4,s1
    21a8:	00120213          	addi	s2,s2,1
    21ac:	00200293          	li	s3,2
    21b0:	fe5214e3          	bne	s2,s3,2198 <test_19+0x4>
    21b4:	01700e93          	li	t3,23
    21b8:	01300e13          	li	t2,19
    21bc:	0dd31a63          	bne	s4,t3,2290 <fail>

00000000000021c0 <test_20>:
    21c0:	00000213          	li	s2,0
    21c4:	00d00093          	li	ra,13
    21c8:	0090819b          	addiw	s1,ra,9
    21cc:	00000013          	nop
    21d0:	00000013          	nop
    21d4:	00018313          	mv	s4,s1
    21d8:	00120213          	addi	s2,s2,1
    21dc:	00200293          	li	s3,2
    21e0:	fe5212e3          	bne	s2,s3,21c4 <test_20+0x4>
    21e4:	01600e93          	li	t3,22
    21e8:	01400e13          	li	t2,20
    21ec:	0bd31263          	bne	s4,t3,2290 <fail>

00000000000021f0 <test_21>:
    21f0:	00000213          	li	s2,0
    21f4:	00d00093          	li	ra,13
    21f8:	00b0819b          	addiw	s1,ra,11
    21fc:	00120213          	addi	s2,s2,1
    2200:	00200293          	li	s3,2
    2204:	fe5218e3          	bne	s2,s3,21f4 <test_21+0x4>
    2208:	01800e93          	li	t3,24
    220c:	01500e13          	li	t2,21
    2210:	09d19063          	bne	s1,t3,2290 <fail>

0000000000002214 <test_22>:
    2214:	00000213          	li	s2,0
    2218:	00d00093          	li	ra,13
    221c:	00000013          	nop
    2220:	00a0819b          	addiw	s1,ra,10
    2224:	00120213          	addi	s2,s2,1
    2228:	00200293          	li	s3,2
    222c:	fe5216e3          	bne	s2,s3,2218 <test_22+0x4>
    2230:	01700e93          	li	t3,23
    2234:	01600e13          	li	t2,22
    2238:	05d19c63          	bne	s1,t3,2290 <fail>

000000000000223c <test_23>:
    223c:	00000213          	li	s2,0
    2240:	00d00093          	li	ra,13
    2244:	00000013          	nop
    2248:	00000013          	nop
    224c:	0090819b          	addiw	s1,ra,9
    2250:	00120213          	addi	s2,s2,1
    2254:	00200293          	li	s3,2
    2258:	fe5214e3          	bne	s2,s3,2240 <test_23+0x4>
    225c:	01600e93          	li	t3,22
    2260:	01700e13          	li	t2,23
    2264:	03d19663          	bne	s1,t3,2290 <fail>

0000000000002268 <test_24>:
    2268:	0200009b          	addiw	ra,zero,32
    226c:	02000e93          	li	t3,32
    2270:	01800e13          	li	t2,24
    2274:	01d09e63          	bne	ra,t3,2290 <fail>

0000000000002278 <test_25>:
    2278:	02100093          	li	ra,33
    227c:	0320801b          	addiw	zero,ra,50
    2280:	00000e93          	li	t3,0
    2284:	01900e13          	li	t2,25
    2288:	01d01463          	bne	zero,t3,2290 <fail>
    228c:	01c01e63          	bne	zero,t2,22a8 <pass>

0000000000002290 <fail>:
    2290:	0ff0000f          	fence
    2294:	000e0863          	beqz	t2,22a4 <fail+0x14>
    2298:	001e1e13          	slli	t2,t2,0x1
    229c:	001e6e13          	ori	t2,t2,1
    22a0:	51ee1073          	csrw	tohost,t2
    22a4:	00000063          	b	22a4 <fail+0x14>

00000000000022a8 <pass>:
    22a8:	0ff0000f          	fence
    22ac:	51e0d073          	csrwi	tohost,1
    22b0:	00000063          	b	22b0 <pass+0x8>
    22b4:	00000013          	nop
    22b8:	00000013          	nop
    22bc:	00000013          	nop
