
rv64ui-v-divu:     file format elf64-littleriscv


Disassembly of section .text:

0000000000002000 <_start>:
    2000:	0002e717          	auipc	sp,0x2e
    2004:	00070713          	mv	sp,sp
    2008:	53900993          	li	a1,1337
    200c:	00002917          	auipc	a0,0x2
    2010:	ff490913          	addi	a0,a0,-12 # 4000 <userstart>
    2014:	0910006f          	j	28a4 <vm_boot>

0000000000002018 <save_tf>:
    2018:	00313c23          	sd	s1,24(s0)
    201c:	02413023          	sd	s2,32(s0)
    2020:	02513423          	sd	s3,40(s0)
    2024:	02613823          	sd	s4,48(s0)
    2028:	02713c23          	sd	s5,56(s0)
    202c:	04813023          	sd	s6,64(s0)
    2030:	04913423          	sd	s7,72(s0)
    2034:	04a13823          	sd	s8,80(s0)
    2038:	04b13c23          	sd	s9,88(s0)
    203c:	06c13023          	sd	s10,96(s0)
    2040:	06d13423          	sd	s11,104(s0)
    2044:	06e13823          	sd	sp,112(s0)
    2048:	06f13c23          	sd	tp,120(s0)
    204c:	09013023          	sd	v0,128(s0)
    2050:	09113423          	sd	v1,136(s0)
    2054:	09213823          	sd	a0,144(s0)
    2058:	09313c23          	sd	a1,152(s0)
    205c:	0b413023          	sd	a2,160(s0)
    2060:	0b513423          	sd	a3,168(s0)
    2064:	0b613823          	sd	a4,176(s0)
    2068:	0b713c23          	sd	a5,184(s0)
    206c:	0d813023          	sd	a6,192(s0)
    2070:	0d913423          	sd	a7,200(s0)
    2074:	0da13823          	sd	t0,208(s0)
    2078:	0db13c23          	sd	t1,216(s0)
    207c:	0fc13023          	sd	t2,224(s0)
    2080:	0fd13423          	sd	t3,232(s0)
    2084:	0fe13823          	sd	t4,240(s0)
    2088:	0ff13c23          	sd	gp,248(s0)
    208c:	500021f3          	csrr	s1,sup0
    2090:	00313423          	sd	s1,8(s0)
    2094:	501021f3          	csrr	s1,sup1
    2098:	00313823          	sd	s1,16(s0)
    209c:	50a021f3          	csrr	s1,status
    20a0:	10313023          	sd	s1,256(s0)
    20a4:	50202273          	csrr	s2,epc
    20a8:	10413423          	sd	s2,264(s0)
    20ac:	503021f3          	csrr	s1,badvaddr
    20b0:	10313823          	sd	s1,272(s0)
    20b4:	509021f3          	csrr	s1,cause
    20b8:	10313c23          	sd	s1,280(s0)
    20bc:	0001de63          	bgez	s1,20d8 <save_tf+0xc0>
    20c0:	00119193          	slli	s1,s1,0x1
    20c4:	0011d193          	srli	s1,s1,0x1
    20c8:	00200213          	li	s2,2
    20cc:	00419663          	bne	s1,s2,20d8 <save_tf+0xc0>
    20d0:	000041ab          	vxcptcause	s1
    20d4:	12313023          	sd	s1,288(s0)
    20d8:	00008067          	ret

00000000000020dc <pop_tf>:
    20dc:	10093983          	ld	a1,256(a0)
    20e0:	50a99073          	csrw	status,a1
    20e4:	00893083          	ld	ra,8(a0)
    20e8:	01093103          	ld	s0,16(a0)
    20ec:	50009073          	csrw	sup0,ra
    20f0:	50111073          	csrw	sup1,s0
    20f4:	00090093          	mv	ra,a0
    20f8:	0180b183          	ld	s1,24(ra)
    20fc:	0200b203          	ld	s2,32(ra)
    2100:	0280b283          	ld	s3,40(ra)
    2104:	0300b303          	ld	s4,48(ra)
    2108:	0380b383          	ld	s5,56(ra)
    210c:	0400b403          	ld	s6,64(ra)
    2110:	0480b483          	ld	s7,72(ra)
    2114:	0500b503          	ld	s8,80(ra)
    2118:	0580b583          	ld	s9,88(ra)
    211c:	0600b603          	ld	s10,96(ra)
    2120:	0680b683          	ld	s11,104(ra)
    2124:	0700b703          	ld	sp,112(ra)
    2128:	0780b783          	ld	tp,120(ra)
    212c:	0800b803          	ld	v0,128(ra)
    2130:	0880b883          	ld	v1,136(ra)
    2134:	0900b903          	ld	a0,144(ra)
    2138:	0980b983          	ld	a1,152(ra)
    213c:	0a00ba03          	ld	a2,160(ra)
    2140:	0a80ba83          	ld	a3,168(ra)
    2144:	0b00bb03          	ld	a4,176(ra)
    2148:	0b80bb83          	ld	a5,184(ra)
    214c:	0c00bc03          	ld	a6,192(ra)
    2150:	0c80bc83          	ld	a7,200(ra)
    2154:	0d00bd03          	ld	t0,208(ra)
    2158:	0d80bd83          	ld	t1,216(ra)
    215c:	0e00be03          	ld	t2,224(ra)
    2160:	0e80be83          	ld	t3,232(ra)
    2164:	0f00bf03          	ld	t4,240(ra)
    2168:	0f80bf83          	ld	gp,248(ra)
    216c:	1080b103          	ld	s0,264(ra)
    2170:	50211073          	csrw	epc,s0
    2174:	500020f3          	csrr	ra,sup0
    2178:	50102173          	csrr	s0,sup1
    217c:	80000073          	sret

0000000000002180 <trap_entry>:
    2180:	50009073          	csrw	sup0,ra
    2184:	50111073          	csrw	sup1,s0
    2188:	50a020f3          	csrr	ra,status
    218c:	0020f093          	andi	ra,ra,2
    2190:	04009e63          	bnez	ra,21ec <trap_entry+0x6c>
    2194:	00029117          	auipc	s0,0x29
    2198:	d4410113          	addi	s0,s0,-700 # 2aed8 <_end+0x1aed8>
    219c:	e7dff0ef          	jal	2018 <save_tf>
    21a0:	00010713          	mv	sp,s0
    21a4:	50a26073          	csrsi	status,4
    21a8:	00010913          	mv	a0,s0
    21ac:	50a020f3          	csrr	ra,status
    21b0:	1000f093          	andi	ra,ra,256
    21b4:	02008a63          	beqz	ra,21e8 <trap_entry+0x68>
    21b8:	12810113          	addi	s0,s0,296
    21bc:	50c021f3          	csrr	s1,impl
    21c0:	00200213          	li	s2,2
    21c4:	02419063          	bne	s1,s2,21e4 <trap_entry+0x64>
    21c8:	0000420b          	vgetcfg	s2
    21cc:	00413023          	sd	s2,0(s0)
    21d0:	0200420b          	vgetvl	s2
    21d4:	00413423          	sd	s2,8(s0)
    21d8:	01010113          	addi	s0,s0,16
    21dc:	0601302b          	vxcptevac	s0
    21e0:	0080006f          	j	21e8 <trap_entry+0x68>
    21e4:	0001302b          	vxcptsave	s0
    21e8:	378000ef          	jal	2560 <handle_trap>
    21ec:	12800113          	li	s0,296
    21f0:	40270133          	sub	s0,sp,s0
    21f4:	e25ff0ef          	jal	2018 <save_tf>
    21f8:	00010713          	mv	sp,s0
    21fc:	50a26073          	csrsi	status,4
    2200:	00010913          	mv	a0,s0
    2204:	35c000ef          	jal	2560 <handle_trap>
    2208:	0000                	unimp
	...

000000000000220c <terminate>:
    220c:	51e91873          	csrrw	v0,tohost,a0
    2210:	fe081ee3          	bnez	v0,220c <terminate>
    2214:	0000006f          	j	2214 <terminate+0x8>

0000000000002218 <printhex>:
    2218:	fe070713          	addi	sp,sp,-32 # 2ffe0 <_end+0x1ffe0>
    221c:	01770813          	addi	v0,sp,23
    2220:	00770a93          	addi	a3,sp,7
    2224:	00f97a13          	andi	a2,a0,15
    2228:	00aa3a13          	sltiu	a2,a2,10
    222c:	00f97993          	andi	a1,a0,15
    2230:	05700893          	li	v1,87
    2234:	000a0463          	beqz	a2,223c <printhex+0x24>
    2238:	03000893          	li	v1,48
    223c:	013888bb          	addw	v1,v1,a1
    2240:	01180023          	sb	v1,0(v0)
    2244:	fff80813          	addi	v0,v0,-1
    2248:	00495913          	srli	a0,a0,0x4
    224c:	fd581ce3          	bne	v0,a3,2224 <printhex+0xc>
    2250:	00070c23          	sb	zero,24(sp)
    2254:	00870913          	addi	a0,sp,8
    2258:	00094883          	lbu	v1,0(a0)
    225c:	10100993          	li	a1,257
    2260:	03099993          	slli	a1,a1,0x30
    2264:	00088e63          	beqz	v1,2280 <printhex+0x68>
    2268:	00190913          	addi	a0,a0,1
    226c:	0138e8b3          	or	v1,v1,a1
    2270:	51e89873          	csrrw	v0,tohost,v1
    2274:	fe081ee3          	bnez	v0,2270 <printhex+0x58>
    2278:	00094883          	lbu	v1,0(a0)
    227c:	fe0896e3          	bnez	v1,2268 <printhex+0x50>
    2280:	10100893          	li	v1,257
    2284:	03089893          	slli	v1,v1,0x30
    2288:	00a88893          	addi	v1,v1,10
    228c:	51e89873          	csrrw	v0,tohost,v1
    2290:	fe081ee3          	bnez	v0,228c <printhex+0x74>
    2294:	02070713          	addi	sp,sp,32
    2298:	00008067          	ret

000000000000229c <evict>:
    229c:	ffffe8b7          	lui	v1,0xffffe
    22a0:	ff070713          	addi	sp,sp,-16
    22a4:	011908b3          	add	v1,a0,v1
    22a8:	0007c837          	lui	v0,0x7c
    22ac:	00173423          	sd	ra,8(sp)
    22b0:	0b08f663          	bleu	v0,v1,235c <evict+0xc0>
    22b4:	00d95913          	srli	a0,a0,0xd
    22b8:	00d91913          	slli	a0,a0,0xd
    22bc:	00995993          	srli	a1,a0,0x9
    22c0:	00006a17          	auipc	a2,0x6
    22c4:	140a0a13          	addi	a2,a2,320 # 8400 <user_mapping>
    22c8:	013a0833          	add	v0,a2,a1
    22cc:	00083883          	ld	v1,0(v0) # 7c000 <_end+0x6c000>
    22d0:	00089863          	bnez	v1,22e0 <evict+0x44>
    22d4:	00873083          	ld	ra,8(sp)
    22d8:	01070713          	addi	sp,sp,16
    22dc:	00008067          	ret
    22e0:	0007e8b7          	lui	v1,0x7e
    22e4:	00002ab7          	lui	a3,0x2
    22e8:	011908b3          	add	v1,a0,v1
    22ec:	01590ab3          	add	a3,a0,a3
    22f0:	00093c83          	ld	a7,0(a0)
    22f4:	00893c03          	ld	a6,8(a0)
    22f8:	01093b83          	ld	a5,16(a0)
    22fc:	01893b03          	ld	a4,24(a0)
    2300:	02090913          	addi	a0,a0,32
    2304:	0198b023          	sd	a7,0(v1) # 7e000 <_end+0x6e000>
    2308:	0188b423          	sd	a6,8(v1)
    230c:	0178b823          	sd	a5,16(v1)
    2310:	0168bc23          	sd	a4,24(v1)
    2314:	02088893          	addi	v1,v1,32
    2318:	fd591ce3          	bne	a0,a3,22f0 <evict+0x54>
    231c:	00006897          	auipc	v1,0x6
    2320:	ce488893          	addi	v1,v1,-796 # 8000 <freelist_tail>
    2324:	0008b903          	ld	a0,0(v1)
    2328:	013a09b3          	add	a1,a2,a1
    232c:	0009b023          	sd	zero,0(a1)
    2330:	00090c63          	beqz	a0,2348 <evict+0xac>
    2334:	00873083          	ld	ra,8(sp)
    2338:	01093423          	sd	v0,8(a0)
    233c:	01070713          	addi	sp,sp,16
    2340:	0108b023          	sd	v0,0(v1)
    2344:	00008067          	ret
    2348:	0108b023          	sd	v0,0(v1)
    234c:	00006897          	auipc	v1,0x6
    2350:	cbc88893          	addi	v1,v1,-836 # 8008 <freelist_head>
    2354:	0108b023          	sd	v0,0(v1)
    2358:	f7dff06f          	j	22d4 <evict+0x38>
    235c:	10100993          	li	a1,257
    2360:	00004917          	auipc	a0,0x4
    2364:	d9090913          	addi	a0,a0,-624 # 60f0 <.misaligned+0x40>
    2368:	03099993          	slli	a1,a1,0x30
    236c:	00094883          	lbu	v1,0(a0)
    2370:	00088c63          	beqz	v1,2388 <evict+0xec>
    2374:	00190913          	addi	a0,a0,1
    2378:	0138e8b3          	or	v1,v1,a1
    237c:	51e89873          	csrrw	v0,tohost,v1
    2380:	fe081ee3          	bnez	v0,237c <evict+0xe0>
    2384:	fe9ff06f          	j	236c <evict+0xd0>
    2388:	10100893          	li	v1,257
    238c:	03089893          	slli	v1,v1,0x30
    2390:	00a88893          	addi	v1,v1,10
    2394:	51e89873          	csrrw	v0,tohost,v1
    2398:	fe081ee3          	bnez	v0,2394 <evict+0xf8>
    239c:	00300913          	li	a0,3
    23a0:	e6dff0ef          	jal	220c <terminate>

00000000000023a4 <handle_fault>:
    23a4:	ffffe8b7          	lui	v1,0xffffe
    23a8:	ff070713          	addi	sp,sp,-16
    23ac:	011908b3          	add	v1,a0,v1
    23b0:	0007c837          	lui	v0,0x7c
    23b4:	00173423          	sd	ra,8(sp)
    23b8:	0d08fc63          	bleu	v0,v1,2490 <handle_fault+0xec>
    23bc:	00006997          	auipc	a1,0x6
    23c0:	c4c98993          	addi	a1,a1,-948 # 8008 <freelist_head>
    23c4:	0009b803          	ld	v0,0(a1)
    23c8:	12080063          	beqz	v0,24e8 <handle_fault+0x144>
    23cc:	00006a17          	auipc	a2,0x6
    23d0:	c34a0a13          	addi	a2,a2,-972 # 8000 <freelist_tail>
    23d4:	00883883          	ld	v1,8(v0) # 7c008 <_end+0x6c008>
    23d8:	000a3a83          	ld	a3,0(a2)
    23dc:	0119b023          	sd	v1,0(a1)
    23e0:	0b588463          	beq	v1,a3,2488 <handle_fault+0xe4>
    23e4:	00d95913          	srli	a0,a0,0xd
    23e8:	00083a03          	ld	a2,0(v0)
    23ec:	00d91913          	slli	a0,a0,0xd
    23f0:	00d95893          	srli	v1,a0,0xd
    23f4:	00389993          	slli	a1,v1,0x3
    23f8:	00008a97          	auipc	a3,0x8
    23fc:	c08a8a93          	addi	a3,a3,-1016 # a000 <l3pt>
    2400:	013a89b3          	add	a1,a3,a1
    2404:	1f9a6a13          	ori	a2,a2,505
    2408:	0149b023          	sd	a2,0(a1)
    240c:	00000993          	li	a1,0
    2410:	50d99073          	csrw	fatc,a1
    2414:	00006a17          	auipc	a2,0x6
    2418:	feca0a13          	addi	a2,a2,-20 # 8400 <user_mapping>
    241c:	00489893          	slli	v1,v1,0x4
    2420:	011a0a33          	add	a2,a2,v1
    2424:	000a3883          	ld	v1,0(a2)
    2428:	08089a63          	bnez	v1,24bc <handle_fault+0x118>
    242c:	00883883          	ld	v1,8(v0)
    2430:	00083803          	ld	v0,0(v0)
    2434:	0007e9b7          	lui	a1,0x7e
    2438:	013909b3          	add	a1,a0,a1
    243c:	010a3023          	sd	v0,0(a2)
    2440:	00002837          	lui	v0,0x2
    2444:	011a3423          	sd	v1,8(a2)
    2448:	01098833          	add	v0,a1,v0
    244c:	0009bb03          	ld	a4,0(a1) # 7e000 <_end+0x6e000>
    2450:	0089ba83          	ld	a3,8(a1)
    2454:	0109ba03          	ld	a2,16(a1)
    2458:	0189b883          	ld	v1,24(a1)
    245c:	02098993          	addi	a1,a1,32
    2460:	01693023          	sd	a4,0(a0)
    2464:	01593423          	sd	a3,8(a0)
    2468:	01493823          	sd	a2,16(a0)
    246c:	01193c23          	sd	v1,24(a0)
    2470:	02090913          	addi	a0,a0,32
    2474:	fd099ce3          	bne	a1,v0,244c <handle_fault+0xa8>
    2478:	0000100f          	fence.i
    247c:	00873083          	ld	ra,8(sp)
    2480:	01070713          	addi	sp,sp,16
    2484:	00008067          	ret
    2488:	000a3023          	sd	zero,0(a2)
    248c:	f59ff06f          	j	23e4 <handle_fault+0x40>
    2490:	10100993          	li	a1,257
    2494:	00004917          	auipc	a0,0x4
    2498:	c5c90913          	addi	a0,a0,-932 # 60f0 <.misaligned+0x40>
    249c:	03099993          	slli	a1,a1,0x30
    24a0:	00094883          	lbu	v1,0(a0)
    24a4:	06088863          	beqz	v1,2514 <handle_fault+0x170>
    24a8:	00190913          	addi	a0,a0,1
    24ac:	0138e8b3          	or	v1,v1,a1
    24b0:	51e89873          	csrrw	v0,tohost,v1
    24b4:	fe081ee3          	bnez	v0,24b0 <handle_fault+0x10c>
    24b8:	fe9ff06f          	j	24a0 <handle_fault+0xfc>
    24bc:	10100993          	li	a1,257
    24c0:	00004917          	auipc	a0,0x4
    24c4:	ca890913          	addi	a0,a0,-856 # 6168 <.misaligned+0xb8>
    24c8:	03099993          	slli	a1,a1,0x30
    24cc:	00094883          	lbu	v1,0(a0)
    24d0:	06088063          	beqz	v1,2530 <handle_fault+0x18c>
    24d4:	00190913          	addi	a0,a0,1
    24d8:	0138e8b3          	or	v1,v1,a1
    24dc:	51e89873          	csrrw	v0,tohost,v1
    24e0:	fe081ee3          	bnez	v0,24dc <handle_fault+0x138>
    24e4:	fe9ff06f          	j	24cc <handle_fault+0x128>
    24e8:	10100993          	li	a1,257
    24ec:	00004917          	auipc	a0,0x4
    24f0:	c6490913          	addi	a0,a0,-924 # 6150 <.misaligned+0xa0>
    24f4:	03099993          	slli	a1,a1,0x30
    24f8:	00094883          	lbu	v1,0(a0)
    24fc:	04088663          	beqz	v1,2548 <handle_fault+0x1a4>
    2500:	00190913          	addi	a0,a0,1
    2504:	0138e8b3          	or	v1,v1,a1
    2508:	51e89873          	csrrw	v0,tohost,v1
    250c:	fe081ee3          	bnez	v0,2508 <handle_fault+0x164>
    2510:	fe9ff06f          	j	24f8 <handle_fault+0x154>
    2514:	10100893          	li	v1,257
    2518:	03089893          	slli	v1,v1,0x30
    251c:	00a88893          	addi	v1,v1,10 # ffffffffffffe00a <_end+0xfffffffffffee00a>
    2520:	51e89873          	csrrw	v0,tohost,v1
    2524:	fe081ee3          	bnez	v0,2520 <handle_fault+0x17c>
    2528:	00300913          	li	a0,3
    252c:	ce1ff0ef          	jal	220c <terminate>
    2530:	10100893          	li	v1,257
    2534:	03089893          	slli	v1,v1,0x30
    2538:	00a88893          	addi	v1,v1,10
    253c:	51e89873          	csrrw	v0,tohost,v1
    2540:	fe081ee3          	bnez	v0,253c <handle_fault+0x198>
    2544:	fe5ff06f          	j	2528 <handle_fault+0x184>
    2548:	10100893          	li	v1,257
    254c:	03089893          	slli	v1,v1,0x30
    2550:	00a88893          	addi	v1,v1,10
    2554:	51e89873          	csrrw	v0,tohost,v1
    2558:	fe081ee3          	bnez	v0,2554 <handle_fault+0x1b0>
    255c:	fcdff06f          	j	2528 <handle_fault+0x184>

0000000000002560 <handle_trap>:
    2560:	11893803          	ld	v0,280(a0)
    2564:	fd070713          	addi	sp,sp,-48
    2568:	00600893          	li	v1,6
    256c:	02273023          	sd	s0,32(sp)
    2570:	02173423          	sd	ra,40(sp)
    2574:	00373c23          	sd	s1,24(sp)
    2578:	00473823          	sd	s2,16(sp)
    257c:	00573423          	sd	s3,8(sp)
    2580:	00090113          	mv	s0,a0
    2584:	2f180063          	beq	v0,v1,2864 <handle_trap+0x304>
    2588:	00100893          	li	v1,1
    258c:	11180a63          	beq	v0,v1,26a0 <handle_trap+0x140>
    2590:	00200893          	li	v1,2
    2594:	09180c63          	beq	v0,v1,262c <handle_trap+0xcc>
    2598:	ff680893          	addi	v1,v0,-10 # 1ff6 <_start-0xa>
    259c:	0028b893          	sltiu	v1,v1,2
    25a0:	10089663          	bnez	v1,26ac <handle_trap+0x14c>
    25a4:	20085663          	bgez	v0,27b0 <handle_trap+0x250>
    25a8:	0ff87813          	andi	v0,v0,255
    25ac:	00200893          	li	v1,2
    25b0:	21181063          	bne	v0,v1,27b0 <handle_trap+0x250>
    25b4:	12093803          	ld	v0,288(a0)
    25b8:	00500893          	li	v1,5
    25bc:	01180a63          	beq	v0,v1,25d0 <handle_trap+0x70>
    25c0:	00a00893          	li	v1,10
    25c4:	01180663          	beq	v0,v1,25d0 <handle_trap+0x70>
    25c8:	00b00893          	li	v1,11
    25cc:	27181663          	bne	v0,v1,2838 <handle_trap+0x2d8>
    25d0:	0200492b          	vxcptaux	a0
    25d4:	dd1ff0ef          	jal	23a4 <handle_fault>
    25d8:	10013883          	ld	v1,256(s0)
    25dc:	10000813          	li	v0,256
    25e0:	1028f893          	andi	v1,v1,258
    25e4:	03088263          	beq	v1,v0,2608 <handle_trap+0xa8>
    25e8:	00010913          	mv	a0,s0
    25ec:	02873083          	ld	ra,40(sp)
    25f0:	02073103          	ld	s0,32(sp)
    25f4:	01873183          	ld	s1,24(sp)
    25f8:	01073203          	ld	s2,16(sp)
    25fc:	00873283          	ld	s3,8(sp)
    2600:	03070713          	addi	sp,sp,48
    2604:	ad9ff06f          	j	20dc <pop_tf>
    2608:	50c028f3          	csrr	v1,impl
    260c:	00200813          	li	v0,2
    2610:	0b088463          	beq	v1,v0,26b8 <handle_trap+0x158>
    2614:	12810813          	addi	v0,s0,296
    2618:	0208302b          	vxcptrestore	v0
    261c:	10013803          	ld	v0,256(s0)
    2620:	00886813          	ori	v0,v0,8
    2624:	11013023          	sd	v0,256(s0)
    2628:	fc1ff06f          	j	25e8 <handle_trap+0x88>
    262c:	10893803          	ld	v0,264(a0)
    2630:	00387893          	andi	v1,v0,3
    2634:	1a089463          	bnez	v1,27dc <handle_trap+0x27c>
    2638:	00082883          	lw	v1,0(v0)
    263c:	00000817          	auipc	v0,0x0
    2640:	01080813          	addi	v0,v0,16 # 264c <handle_trap+0xec>
    2644:	00082803          	lw	v0,0(v0)
    2648:	00000463          	b	2650 <handle_trap+0xf0>
    264c:	00301073          	fssr	zero
    2650:	15088c63          	beq	v1,v0,27a8 <handle_trap+0x248>
    2654:	00004917          	auipc	a0,0x4
    2658:	b7c90913          	addi	a0,a0,-1156 # 61d0 <.misaligned+0x120>
    265c:	00094883          	lbu	v1,0(a0)
    2660:	10100993          	li	a1,257
    2664:	03099993          	slli	a1,a1,0x30
    2668:	00088e63          	beqz	v1,2684 <handle_trap+0x124>
    266c:	00190913          	addi	a0,a0,1
    2670:	0138e8b3          	or	v1,v1,a1
    2674:	51e89873          	csrrw	v0,tohost,v1
    2678:	fe081ee3          	bnez	v0,2674 <handle_trap+0x114>
    267c:	00094883          	lbu	v1,0(a0)
    2680:	fe0896e3          	bnez	v1,266c <handle_trap+0x10c>
    2684:	10100893          	li	v1,257
    2688:	03089893          	slli	v1,v1,0x30
    268c:	00a88893          	addi	v1,v1,10
    2690:	51e89873          	csrrw	v0,tohost,v1
    2694:	fe081ee3          	bnez	v0,2690 <handle_trap+0x130>
    2698:	00300913          	li	a0,3
    269c:	b71ff0ef          	jal	220c <terminate>
    26a0:	10893903          	ld	a0,264(a0)
    26a4:	d01ff0ef          	jal	23a4 <handle_fault>
    26a8:	f31ff06f          	j	25d8 <handle_trap+0x78>
    26ac:	11093903          	ld	a0,272(a0)
    26b0:	cf5ff0ef          	jal	23a4 <handle_fault>
    26b4:	f25ff06f          	j	25d8 <handle_trap+0x78>
    26b8:	12810a13          	addi	a2,s0,296
    26bc:	12813803          	ld	v0,296(s0)
    26c0:	0008200b          	vsetcfg	v0
    26c4:	13013803          	ld	v0,304(s0)
    26c8:	0008680b          	vsetvl	v0,v0
    26cc:	0800302b          	vxcpthold
    26d0:	13813803          	ld	v0,312(s0)
    26d4:	00100a93          	li	a3,1
    26d8:	00200913          	li	a0,2
    26dc:	020a9b13          	slli	a4,a3,0x20
    26e0:	023a9c13          	slli	a6,a3,0x23
    26e4:	022a9b93          	slli	a5,a3,0x22
    26e8:	0a084a63          	bltz	v0,279c <handle_trap+0x23c>
    26ec:	016879b3          	and	a1,v0,a4
    26f0:	0019089b          	addiw	v1,a0,1
    26f4:	02099663          	bnez	a1,2720 <handle_trap+0x1c0>
    26f8:	00389913          	slli	a0,v1,0x3
    26fc:	012a0933          	add	a0,a2,a0
    2700:	00093903          	ld	a0,0(a0)
    2704:	01f95993          	srli	a1,a0,0x1f
    2708:	0029f993          	andi	a1,a1,2
    270c:	0039e9b3          	or	a1,a1,s1
    2710:	1138302b          	venqcnt	v0,a1
    2714:	00090813          	mv	v0,a0
    2718:	00088913          	mv	a0,v1
    271c:	fcdff06f          	j	26e8 <handle_trap+0x188>
    2720:	000a9463          	bnez	a3,2728 <handle_trap+0x1c8>
    2724:	0a32302b          	venqcmd	s2,s1
    2728:	42485193          	srai	s1,v0,0x24
    272c:	018879b3          	and	a1,v0,a6
    2730:	0011f193          	andi	s1,s1,1
    2734:	00098c63          	beqz	a1,274c <handle_trap+0x1ec>
    2738:	00389893          	slli	v1,v1,0x3
    273c:	011a08b3          	add	v1,a2,v1
    2740:	0008b883          	ld	v1,0(v1)
    2744:	0c38b02b          	venqimm1	v1,s1
    2748:	0029089b          	addiw	v1,a0,2
    274c:	01787933          	and	a0,v0,a5
    2750:	02090863          	beqz	a0,2780 <handle_trap+0x220>
    2754:	00389913          	slli	a0,v1,0x3
    2758:	012a0933          	add	a0,a2,a0
    275c:	00093903          	ld	a0,0(a0)
    2760:	0e39302b          	venqimm2	a0,s1
    2764:	0018891b          	addiw	a0,v1,1
    2768:	00391893          	slli	v1,a0,0x3
    276c:	011a08b3          	add	v1,a2,v1
    2770:	00080213          	mv	s2,v0
    2774:	00000a93          	li	a3,0
    2778:	0008b803          	ld	v0,0(v1)
    277c:	f6dff06f          	j	26e8 <handle_trap+0x188>
    2780:	00389913          	slli	a0,v1,0x3
    2784:	012a0933          	add	a0,a2,a0
    2788:	00080213          	mv	s2,v0
    278c:	00000a93          	li	a3,0
    2790:	00093803          	ld	v0,0(a0)
    2794:	00088913          	mv	a0,v1
    2798:	f51ff06f          	j	26e8 <handle_trap+0x188>
    279c:	e80a90e3          	bnez	a3,261c <handle_trap+0xbc>
    27a0:	0a32302b          	venqcmd	s2,s1
    27a4:	e79ff06f          	j	261c <handle_trap+0xbc>
    27a8:	00100913          	li	a0,1
    27ac:	a61ff0ef          	jal	220c <terminate>
    27b0:	10100993          	li	a1,257
    27b4:	00004817          	auipc	v0,0x4
    27b8:	a1c80813          	addi	v0,v0,-1508 # 61d0 <.misaligned+0x120>
    27bc:	03099993          	slli	a1,a1,0x30
    27c0:	00084883          	lbu	v1,0(v0)
    27c4:	04088263          	beqz	v1,2808 <handle_trap+0x2a8>
    27c8:	00180813          	addi	v0,v0,1
    27cc:	0138e933          	or	a0,v1,a1
    27d0:	51e918f3          	csrrw	v1,tohost,a0
    27d4:	fe089ee3          	bnez	v1,27d0 <handle_trap+0x270>
    27d8:	fe9ff06f          	j	27c0 <handle_trap+0x260>
    27dc:	10100913          	li	a0,257
    27e0:	00004817          	auipc	v0,0x4
    27e4:	9c880813          	addi	v0,v0,-1592 # 61a8 <.misaligned+0xf8>
    27e8:	03091913          	slli	a0,a0,0x30
    27ec:	00084883          	lbu	v1,0(v0)
    27f0:	02088863          	beqz	v1,2820 <handle_trap+0x2c0>
    27f4:	00180813          	addi	v0,v0,1
    27f8:	0128e8b3          	or	v1,v1,a0
    27fc:	51e899f3          	csrrw	a1,tohost,v1
    2800:	fe099ee3          	bnez	a1,27fc <handle_trap+0x29c>
    2804:	fe9ff06f          	j	27ec <handle_trap+0x28c>
    2808:	10100813          	li	v0,257
    280c:	03081813          	slli	v0,v0,0x30
    2810:	00a80813          	addi	v0,v0,10
    2814:	51e818f3          	csrrw	v1,tohost,v0
    2818:	fe089ee3          	bnez	v1,2814 <handle_trap+0x2b4>
    281c:	e7dff06f          	j	2698 <handle_trap+0x138>
    2820:	10100813          	li	v0,257
    2824:	03081813          	slli	v0,v0,0x30
    2828:	00a80813          	addi	v0,v0,10
    282c:	51e818f3          	csrrw	v1,tohost,v0
    2830:	fe089ee3          	bnez	v1,282c <handle_trap+0x2cc>
    2834:	e65ff06f          	j	2698 <handle_trap+0x138>
    2838:	10100913          	li	a0,257
    283c:	00004817          	auipc	v0,0x4
    2840:	99480813          	addi	v0,v0,-1644 # 61d0 <.misaligned+0x120>
    2844:	03091913          	slli	a0,a0,0x30
    2848:	00084883          	lbu	v1,0(v0)
    284c:	04088063          	beqz	v1,288c <handle_trap+0x32c>
    2850:	00180813          	addi	v0,v0,1
    2854:	0128e8b3          	or	v1,v1,a0
    2858:	51e899f3          	csrrw	a1,tohost,v1
    285c:	fe099ee3          	bnez	a1,2858 <handle_trap+0x2f8>
    2860:	fe9ff06f          	j	2848 <handle_trap+0x2e8>
    2864:	09092183          	lw	s1,144(a0)
    2868:	00002137          	lui	s0,0x2
    286c:	000022b7          	lui	s3,0x2
    2870:	0007e237          	lui	s2,0x7e
    2874:	00010913          	mv	a0,s0
    2878:	00510133          	add	s0,s0,s3
    287c:	a21ff0ef          	jal	229c <evict>
    2880:	fe411ae3          	bne	s0,s2,2874 <handle_trap+0x314>
    2884:	00018913          	mv	a0,s1
    2888:	985ff0ef          	jal	220c <terminate>
    288c:	10100813          	li	v0,257
    2890:	03081813          	slli	v0,v0,0x30
    2894:	00a80813          	addi	v0,v0,10
    2898:	51e818f3          	csrrw	v1,tohost,v0
    289c:	fe089ee3          	bnez	v1,2898 <handle_trap+0x338>
    28a0:	df9ff06f          	j	2698 <handle_trap+0x138>

00000000000028a4 <vm_boot>:
    28a4:	00005d37          	lui	t0,0x5
    28a8:	81070713          	addi	sp,sp,-2032
    28ac:	960d0d13          	addi	t0,t0,-1696 # 4960 <pass+0x828>
    28b0:	7c473823          	sd	s2,2000(sp)
    28b4:	7e173423          	sd	ra,2024(sp)
    28b8:	7e273023          	sd	s0,2016(sp)
    28bc:	7c373c23          	sd	s1,2008(sp)
    28c0:	00090213          	mv	s2,a0
    28c4:	41a70733          	sub	sp,sp,t0
    28c8:	50b02873          	csrr	v0,hartid
    28cc:	ff004ee3          	bgtz	v0,28c8 <vm_boot+0x24>
    28d0:	00009817          	auipc	v0,0x9
    28d4:	73080813          	addi	v0,v0,1840 # c000 <l2pt>
    28d8:	00007897          	auipc	v1,0x7
    28dc:	72888893          	addi	v1,v1,1832 # a000 <l3pt>
    28e0:	00386993          	ori	a1,v0,3
    28e4:	0038e913          	ori	a0,v1,3
    28e8:	0000ba97          	auipc	a3,0xb
    28ec:	718a8a93          	addi	a3,a3,1816 # e000 <l1pt>
    28f0:	013ab023          	sd	a1,0(a3)
    28f4:	01283023          	sd	a0,0(v0)
    28f8:	1f888893          	addi	v1,v1,504
    28fc:	00000813          	li	v0,0
    2900:	00002a37          	lui	a2,0x2
    2904:	0007e9b7          	lui	a1,0x7e
    2908:	1c186913          	ori	a0,v0,449
    290c:	01480833          	add	v0,v0,a2
    2910:	0128b023          	sd	a0,0(v1)
    2914:	e128b423          	sd	a0,-504(v1)
    2918:	00888893          	addi	v1,v1,8
    291c:	ff3816e3          	bne	v0,a1,2908 <vm_boot+0x64>
    2920:	504a9073          	csrw	ptbr,a3
    2924:	50a02873          	csrr	v0,status
    2928:	09086813          	ori	v0,v0,144
    292c:	50a81073          	csrw	status,v0
    2930:	00004817          	auipc	v0,0x4
    2934:	8b883803          	ld	v0,-1864(v0) # 61e8 <.misaligned+0x138>
    2938:	50881073          	csrw	evec,v0
    293c:	0007e837          	lui	v0,0x7e
    2940:	01070733          	add	sp,sp,v0
    2944:	004008ef          	jal	v1,2948 <vm_boot+0xa4>
    2948:	010888b3          	add	v1,v1,v0
    294c:	00888067          	jr	v1,8
    2950:	00007917          	auipc	a0,0x7
    2954:	6b090913          	addi	a0,a0,1712 # a000 <l3pt>
    2958:	00000993          	li	a1,0
    295c:	1f800a13          	li	a2,504
    2960:	6a0030ef          	jal	6000 <memset>
    2964:	00000813          	li	v0,0
    2968:	50d81073          	csrw	fatc,v0
    296c:	00005817          	auipc	v0,0x5
    2970:	6a480813          	addi	v0,v0,1700 # 8010 <freelist_nodes>
    2974:	00005917          	auipc	a0,0x5
    2978:	69490913          	addi	a0,a0,1684 # 8008 <freelist_head>
    297c:	3e080893          	addi	v1,v0,992
    2980:	00080a13          	mv	a2,v0
    2984:	01093023          	sd	v0,0(a0)
    2988:	00005817          	auipc	v0,0x5
    298c:	67880813          	addi	v0,v0,1656 # 8000 <freelist_tail>
    2990:	01183023          	sd	v1,0(v0)
    2994:	0007e937          	lui	a0,0x7e
    2998:	000a0893          	mv	v1,a2
    299c:	00100813          	li	v0,1
    29a0:	00002b37          	lui	a4,0x2
    29a4:	04000a93          	li	a3,64
    29a8:	00481993          	slli	a1,v0,0x4
    29ac:	013a09b3          	add	a1,a2,a1
    29b0:	00180813          	addi	v0,v0,1
    29b4:	0128b023          	sd	a0,0(v1)
    29b8:	0138b423          	sd	a1,8(v1)
    29bc:	01690933          	add	a0,a0,a4
    29c0:	01088893          	addi	v1,v1,16
    29c4:	ff5812e3          	bne	v0,a3,29a8 <vm_boot+0x104>
    29c8:	00005837          	lui	v0,0x5
    29cc:	ffffb137          	lui	s0,0xffffb
    29d0:	13080813          	addi	v0,v0,304 # 5130 <pass+0xff8>
    29d4:	00e80833          	add	v0,v0,sp
    29d8:	ed810113          	addi	s0,s0,-296 # ffffffffffffaed8 <_end+0xfffffffffffeaed8>
    29dc:	00280133          	add	s0,v0,s0
    29e0:	000051b7          	lui	s1,0x5
    29e4:	00005817          	auipc	v0,0x5
    29e8:	62c80813          	addi	v0,v0,1580 # 8010 <freelist_nodes>
    29ec:	00010913          	mv	a0,s0
    29f0:	12818a13          	addi	a2,s1,296 # 5128 <pass+0xff0>
    29f4:	00000993          	li	a1,0
    29f8:	3e083423          	sd	zero,1000(v0)
    29fc:	604030ef          	jal	6000 <memset>
    2a00:	00040837          	lui	v0,0x40
    2a04:	00010913          	mv	a0,s0
    2a08:	1f980813          	addi	v0,v0,505 # 401f9 <_end+0x301f9>
    2a0c:	10473823          	sd	s2,272(sp)
    2a10:	11073423          	sd	v0,264(sp)
    2a14:	ec8ff0ef          	jal	20dc <pop_tf>
    2a18:	00005d37          	lui	t0,0x5
    2a1c:	960d0d13          	addi	t0,t0,-1696 # 4960 <pass+0x828>
    2a20:	01a70733          	add	sp,sp,t0
    2a24:	7e873083          	ld	ra,2024(sp)
    2a28:	7e073103          	ld	s0,2016(sp)
    2a2c:	7d873183          	ld	s1,2008(sp)
    2a30:	7d073203          	ld	s2,2000(sp)
    2a34:	7f070713          	addi	sp,sp,2032
    2a38:	00008067          	ret
	...

0000000000004000 <userstart>:
    4000:	01400093          	li	ra,20
    4004:	00600113          	li	s0,6
    4008:	0220d1b3          	divu	s1,ra,s0
    400c:	00300e93          	li	t3,3
    4010:	00200e13          	li	t2,2
    4014:	11d19a63          	bne	s1,t3,4128 <fail>

0000000000004018 <test_3>:
    4018:	fec00093          	li	ra,-20
    401c:	00600113          	li	s0,6
    4020:	0220d1b3          	divu	s1,ra,s0
    4024:	15555eb7          	lui	t3,0x15555
    4028:	555e8e9b          	addiw	t3,t3,1365
    402c:	00be9e93          	slli	t3,t3,0xb
    4030:	2aae8e93          	addi	t3,t3,682 # 155552aa <_end+0x155452aa>
    4034:	00be9e93          	slli	t3,t3,0xb
    4038:	555e8e93          	addi	t3,t3,1365
    403c:	00be9e93          	slli	t3,t3,0xb
    4040:	2a7e8e93          	addi	t3,t3,679
    4044:	00300e13          	li	t2,3
    4048:	0fd19063          	bne	s1,t3,4128 <fail>

000000000000404c <test_4>:
    404c:	01400093          	li	ra,20
    4050:	ffa00113          	li	s0,-6
    4054:	0220d1b3          	divu	s1,ra,s0
    4058:	00000e93          	li	t3,0
    405c:	00400e13          	li	t2,4
    4060:	0dd19463          	bne	s1,t3,4128 <fail>

0000000000004064 <test_5>:
    4064:	fec00093          	li	ra,-20
    4068:	ffa00113          	li	s0,-6
    406c:	0220d1b3          	divu	s1,ra,s0
    4070:	00000e93          	li	t3,0
    4074:	00500e13          	li	t2,5
    4078:	0bd19863          	bne	s1,t3,4128 <fail>

000000000000407c <test_6>:
    407c:	c00000b7          	lui	ra,0xc0000
    4080:	00b09093          	slli	ra,ra,0xb
    4084:	00b09093          	slli	ra,ra,0xb
    4088:	00b09093          	slli	ra,ra,0xb
    408c:	00100113          	li	s0,1
    4090:	0220d1b3          	divu	s1,ra,s0
    4094:	c0000eb7          	lui	t3,0xc0000
    4098:	00be9e93          	slli	t3,t3,0xb
    409c:	00be9e93          	slli	t3,t3,0xb
    40a0:	00be9e93          	slli	t3,t3,0xb
    40a4:	00600e13          	li	t2,6
    40a8:	09d19063          	bne	s1,t3,4128 <fail>

00000000000040ac <test_7>:
    40ac:	c00000b7          	lui	ra,0xc0000
    40b0:	00b09093          	slli	ra,ra,0xb
    40b4:	00b09093          	slli	ra,ra,0xb
    40b8:	00b09093          	slli	ra,ra,0xb
    40bc:	fff00113          	li	s0,-1
    40c0:	0220d1b3          	divu	s1,ra,s0
    40c4:	00000e93          	li	t3,0
    40c8:	00700e13          	li	t2,7
    40cc:	05d19e63          	bne	s1,t3,4128 <fail>

00000000000040d0 <test_8>:
    40d0:	c00000b7          	lui	ra,0xc0000
    40d4:	00b09093          	slli	ra,ra,0xb
    40d8:	00b09093          	slli	ra,ra,0xb
    40dc:	00b09093          	slli	ra,ra,0xb
    40e0:	00000113          	li	s0,0
    40e4:	0220d1b3          	divu	s1,ra,s0
    40e8:	fff00e93          	li	t3,-1
    40ec:	00800e13          	li	t2,8
    40f0:	03d19c63          	bne	s1,t3,4128 <fail>

00000000000040f4 <test_9>:
    40f4:	00100093          	li	ra,1
    40f8:	00000113          	li	s0,0
    40fc:	0220d1b3          	divu	s1,ra,s0
    4100:	fff00e93          	li	t3,-1
    4104:	00900e13          	li	t2,9
    4108:	03d19063          	bne	s1,t3,4128 <fail>

000000000000410c <test_10>:
    410c:	00000093          	li	ra,0
    4110:	00000113          	li	s0,0
    4114:	0220d1b3          	divu	s1,ra,s0
    4118:	fff00e93          	li	t3,-1
    411c:	00a00e13          	li	t2,10
    4120:	01d19463          	bne	s1,t3,4128 <fail>
    4124:	01c01a63          	bne	zero,t2,4138 <pass>

0000000000004128 <fail>:
    4128:	001e1913          	slli	a0,t2,0x1
    412c:	00090063          	beqz	a0,412c <fail+0x4>
    4130:	00196913          	ori	a0,a0,1
    4134:	00000073          	scall

0000000000004138 <pass>:
    4138:	00100913          	li	a0,1
    413c:	00000073          	scall
    4140:	00000013          	nop
    4144:	00000013          	nop
    4148:	00000013          	nop
    414c:	00000013          	nop
    4150:	00000013          	nop
    4154:	00000013          	nop
    4158:	00000013          	nop
    415c:	00000013          	nop
    4160:	00000013          	nop
    4164:	00000013          	nop
    4168:	00000013          	nop
    416c:	00000013          	nop
    4170:	00000013          	nop
    4174:	00000013          	nop
    4178:	00000013          	nop
    417c:	00000013          	nop
    4180:	00000013          	nop
    4184:	00000013          	nop
    4188:	00000013          	nop
    418c:	00000013          	nop
    4190:	00000013          	nop
    4194:	00000013          	nop
    4198:	00000013          	nop
    419c:	00000013          	nop
    41a0:	00000013          	nop
    41a4:	00000013          	nop
    41a8:	00000013          	nop
    41ac:	00000013          	nop
    41b0:	00000013          	nop
    41b4:	00000013          	nop
    41b8:	00000013          	nop
    41bc:	00000013          	nop
    41c0:	00000013          	nop
    41c4:	00000013          	nop
    41c8:	00000013          	nop
    41cc:	00000013          	nop
    41d0:	00000013          	nop
    41d4:	00000013          	nop
    41d8:	00000013          	nop
    41dc:	00000013          	nop
    41e0:	00000013          	nop
    41e4:	00000013          	nop
    41e8:	00000013          	nop
    41ec:	00000013          	nop
    41f0:	00000013          	nop
    41f4:	00000013          	nop
    41f8:	00000013          	nop
    41fc:	00000013          	nop
    4200:	00000013          	nop
    4204:	00000013          	nop
    4208:	00000013          	nop
    420c:	00000013          	nop
    4210:	00000013          	nop
    4214:	00000013          	nop
    4218:	00000013          	nop
    421c:	00000013          	nop
    4220:	00000013          	nop
    4224:	00000013          	nop
    4228:	00000013          	nop
    422c:	00000013          	nop
    4230:	00000013          	nop
    4234:	00000013          	nop
    4238:	00000013          	nop
    423c:	00000013          	nop
    4240:	00000013          	nop
    4244:	00000013          	nop
    4248:	00000013          	nop
    424c:	00000013          	nop
    4250:	00000013          	nop
    4254:	00000013          	nop
    4258:	00000013          	nop
    425c:	00000013          	nop
    4260:	00000013          	nop
    4264:	00000013          	nop
    4268:	00000013          	nop
    426c:	00000013          	nop
    4270:	00000013          	nop
    4274:	00000013          	nop
    4278:	00000013          	nop
    427c:	00000013          	nop
    4280:	00000013          	nop
    4284:	00000013          	nop
    4288:	00000013          	nop
    428c:	00000013          	nop
    4290:	00000013          	nop
    4294:	00000013          	nop
    4298:	00000013          	nop
    429c:	00000013          	nop
    42a0:	00000013          	nop
    42a4:	00000013          	nop
    42a8:	00000013          	nop
    42ac:	00000013          	nop
    42b0:	00000013          	nop
    42b4:	00000013          	nop
    42b8:	00000013          	nop
    42bc:	00000013          	nop
    42c0:	00000013          	nop
    42c4:	00000013          	nop
    42c8:	00000013          	nop
    42cc:	00000013          	nop
    42d0:	00000013          	nop
    42d4:	00000013          	nop
    42d8:	00000013          	nop
    42dc:	00000013          	nop
    42e0:	00000013          	nop
    42e4:	00000013          	nop
    42e8:	00000013          	nop
    42ec:	00000013          	nop
    42f0:	00000013          	nop
    42f4:	00000013          	nop
    42f8:	00000013          	nop
    42fc:	00000013          	nop
    4300:	00000013          	nop
    4304:	00000013          	nop
    4308:	00000013          	nop
    430c:	00000013          	nop
    4310:	00000013          	nop
    4314:	00000013          	nop
    4318:	00000013          	nop
    431c:	00000013          	nop
    4320:	00000013          	nop
    4324:	00000013          	nop
    4328:	00000013          	nop
    432c:	00000013          	nop
    4330:	00000013          	nop
    4334:	00000013          	nop
    4338:	00000013          	nop
    433c:	00000013          	nop
    4340:	00000013          	nop
    4344:	00000013          	nop
    4348:	00000013          	nop
    434c:	00000013          	nop
    4350:	00000013          	nop
    4354:	00000013          	nop
    4358:	00000013          	nop
    435c:	00000013          	nop
    4360:	00000013          	nop
    4364:	00000013          	nop
    4368:	00000013          	nop
    436c:	00000013          	nop
    4370:	00000013          	nop
    4374:	00000013          	nop
    4378:	00000013          	nop
    437c:	00000013          	nop
    4380:	00000013          	nop
    4384:	00000013          	nop
    4388:	00000013          	nop
    438c:	00000013          	nop
    4390:	00000013          	nop
    4394:	00000013          	nop
    4398:	00000013          	nop
    439c:	00000013          	nop
    43a0:	00000013          	nop
    43a4:	00000013          	nop
    43a8:	00000013          	nop
    43ac:	00000013          	nop
    43b0:	00000013          	nop
    43b4:	00000013          	nop
    43b8:	00000013          	nop
    43bc:	00000013          	nop
    43c0:	00000013          	nop
    43c4:	00000013          	nop
    43c8:	00000013          	nop
    43cc:	00000013          	nop
    43d0:	00000013          	nop
    43d4:	00000013          	nop
    43d8:	00000013          	nop
    43dc:	00000013          	nop
    43e0:	00000013          	nop
    43e4:	00000013          	nop
    43e8:	00000013          	nop
    43ec:	00000013          	nop
    43f0:	00000013          	nop
    43f4:	00000013          	nop
    43f8:	00000013          	nop
    43fc:	00000013          	nop
    4400:	00000013          	nop
    4404:	00000013          	nop
    4408:	00000013          	nop
    440c:	00000013          	nop
    4410:	00000013          	nop
    4414:	00000013          	nop
    4418:	00000013          	nop
    441c:	00000013          	nop
    4420:	00000013          	nop
    4424:	00000013          	nop
    4428:	00000013          	nop
    442c:	00000013          	nop
    4430:	00000013          	nop
    4434:	00000013          	nop
    4438:	00000013          	nop
    443c:	00000013          	nop
    4440:	00000013          	nop
    4444:	00000013          	nop
    4448:	00000013          	nop
    444c:	00000013          	nop
    4450:	00000013          	nop
    4454:	00000013          	nop
    4458:	00000013          	nop
    445c:	00000013          	nop
    4460:	00000013          	nop
    4464:	00000013          	nop
    4468:	00000013          	nop
    446c:	00000013          	nop
    4470:	00000013          	nop
    4474:	00000013          	nop
    4478:	00000013          	nop
    447c:	00000013          	nop
    4480:	00000013          	nop
    4484:	00000013          	nop
    4488:	00000013          	nop
    448c:	00000013          	nop
    4490:	00000013          	nop
    4494:	00000013          	nop
    4498:	00000013          	nop
    449c:	00000013          	nop
    44a0:	00000013          	nop
    44a4:	00000013          	nop
    44a8:	00000013          	nop
    44ac:	00000013          	nop
    44b0:	00000013          	nop
    44b4:	00000013          	nop
    44b8:	00000013          	nop
    44bc:	00000013          	nop
    44c0:	00000013          	nop
    44c4:	00000013          	nop
    44c8:	00000013          	nop
    44cc:	00000013          	nop
    44d0:	00000013          	nop
    44d4:	00000013          	nop
    44d8:	00000013          	nop
    44dc:	00000013          	nop
    44e0:	00000013          	nop
    44e4:	00000013          	nop
    44e8:	00000013          	nop
    44ec:	00000013          	nop
    44f0:	00000013          	nop
    44f4:	00000013          	nop
    44f8:	00000013          	nop
    44fc:	00000013          	nop
    4500:	00000013          	nop
    4504:	00000013          	nop
    4508:	00000013          	nop
    450c:	00000013          	nop
    4510:	00000013          	nop
    4514:	00000013          	nop
    4518:	00000013          	nop
    451c:	00000013          	nop
    4520:	00000013          	nop
    4524:	00000013          	nop
    4528:	00000013          	nop
    452c:	00000013          	nop
    4530:	00000013          	nop
    4534:	00000013          	nop
    4538:	00000013          	nop
    453c:	00000013          	nop
    4540:	00000013          	nop
    4544:	00000013          	nop
    4548:	00000013          	nop
    454c:	00000013          	nop
    4550:	00000013          	nop
    4554:	00000013          	nop
    4558:	00000013          	nop
    455c:	00000013          	nop
    4560:	00000013          	nop
    4564:	00000013          	nop
    4568:	00000013          	nop
    456c:	00000013          	nop
    4570:	00000013          	nop
    4574:	00000013          	nop
    4578:	00000013          	nop
    457c:	00000013          	nop
    4580:	00000013          	nop
    4584:	00000013          	nop
    4588:	00000013          	nop
    458c:	00000013          	nop
    4590:	00000013          	nop
    4594:	00000013          	nop
    4598:	00000013          	nop
    459c:	00000013          	nop
    45a0:	00000013          	nop
    45a4:	00000013          	nop
    45a8:	00000013          	nop
    45ac:	00000013          	nop
    45b0:	00000013          	nop
    45b4:	00000013          	nop
    45b8:	00000013          	nop
    45bc:	00000013          	nop
    45c0:	00000013          	nop
    45c4:	00000013          	nop
    45c8:	00000013          	nop
    45cc:	00000013          	nop
    45d0:	00000013          	nop
    45d4:	00000013          	nop
    45d8:	00000013          	nop
    45dc:	00000013          	nop
    45e0:	00000013          	nop
    45e4:	00000013          	nop
    45e8:	00000013          	nop
    45ec:	00000013          	nop
    45f0:	00000013          	nop
    45f4:	00000013          	nop
    45f8:	00000013          	nop
    45fc:	00000013          	nop
    4600:	00000013          	nop
    4604:	00000013          	nop
    4608:	00000013          	nop
    460c:	00000013          	nop
    4610:	00000013          	nop
    4614:	00000013          	nop
    4618:	00000013          	nop
    461c:	00000013          	nop
    4620:	00000013          	nop
    4624:	00000013          	nop
    4628:	00000013          	nop
    462c:	00000013          	nop
    4630:	00000013          	nop
    4634:	00000013          	nop
    4638:	00000013          	nop
    463c:	00000013          	nop
    4640:	00000013          	nop
    4644:	00000013          	nop
    4648:	00000013          	nop
    464c:	00000013          	nop
    4650:	00000013          	nop
    4654:	00000013          	nop
    4658:	00000013          	nop
    465c:	00000013          	nop
    4660:	00000013          	nop
    4664:	00000013          	nop
    4668:	00000013          	nop
    466c:	00000013          	nop
    4670:	00000013          	nop
    4674:	00000013          	nop
    4678:	00000013          	nop
    467c:	00000013          	nop
    4680:	00000013          	nop
    4684:	00000013          	nop
    4688:	00000013          	nop
    468c:	00000013          	nop
    4690:	00000013          	nop
    4694:	00000013          	nop
    4698:	00000013          	nop
    469c:	00000013          	nop
    46a0:	00000013          	nop
    46a4:	00000013          	nop
    46a8:	00000013          	nop
    46ac:	00000013          	nop
    46b0:	00000013          	nop
    46b4:	00000013          	nop
    46b8:	00000013          	nop
    46bc:	00000013          	nop
    46c0:	00000013          	nop
    46c4:	00000013          	nop
    46c8:	00000013          	nop
    46cc:	00000013          	nop
    46d0:	00000013          	nop
    46d4:	00000013          	nop
    46d8:	00000013          	nop
    46dc:	00000013          	nop
    46e0:	00000013          	nop
    46e4:	00000013          	nop
    46e8:	00000013          	nop
    46ec:	00000013          	nop
    46f0:	00000013          	nop
    46f4:	00000013          	nop
    46f8:	00000013          	nop
    46fc:	00000013          	nop
    4700:	00000013          	nop
    4704:	00000013          	nop
    4708:	00000013          	nop
    470c:	00000013          	nop
    4710:	00000013          	nop
    4714:	00000013          	nop
    4718:	00000013          	nop
    471c:	00000013          	nop
    4720:	00000013          	nop
    4724:	00000013          	nop
    4728:	00000013          	nop
    472c:	00000013          	nop
    4730:	00000013          	nop
    4734:	00000013          	nop
    4738:	00000013          	nop
    473c:	00000013          	nop
    4740:	00000013          	nop
    4744:	00000013          	nop
    4748:	00000013          	nop
    474c:	00000013          	nop
    4750:	00000013          	nop
    4754:	00000013          	nop
    4758:	00000013          	nop
    475c:	00000013          	nop
    4760:	00000013          	nop
    4764:	00000013          	nop
    4768:	00000013          	nop
    476c:	00000013          	nop
    4770:	00000013          	nop
    4774:	00000013          	nop
    4778:	00000013          	nop
    477c:	00000013          	nop
    4780:	00000013          	nop
    4784:	00000013          	nop
    4788:	00000013          	nop
    478c:	00000013          	nop
    4790:	00000013          	nop
    4794:	00000013          	nop
    4798:	00000013          	nop
    479c:	00000013          	nop
    47a0:	00000013          	nop
    47a4:	00000013          	nop
    47a8:	00000013          	nop
    47ac:	00000013          	nop
    47b0:	00000013          	nop
    47b4:	00000013          	nop
    47b8:	00000013          	nop
    47bc:	00000013          	nop
    47c0:	00000013          	nop
    47c4:	00000013          	nop
    47c8:	00000013          	nop
    47cc:	00000013          	nop
    47d0:	00000013          	nop
    47d4:	00000013          	nop
    47d8:	00000013          	nop
    47dc:	00000013          	nop
    47e0:	00000013          	nop
    47e4:	00000013          	nop
    47e8:	00000013          	nop
    47ec:	00000013          	nop
    47f0:	00000013          	nop
    47f4:	00000013          	nop
    47f8:	00000013          	nop
    47fc:	00000013          	nop
    4800:	00000013          	nop
    4804:	00000013          	nop
    4808:	00000013          	nop
    480c:	00000013          	nop
    4810:	00000013          	nop
    4814:	00000013          	nop
    4818:	00000013          	nop
    481c:	00000013          	nop
    4820:	00000013          	nop
    4824:	00000013          	nop
    4828:	00000013          	nop
    482c:	00000013          	nop
    4830:	00000013          	nop
    4834:	00000013          	nop
    4838:	00000013          	nop
    483c:	00000013          	nop
    4840:	00000013          	nop
    4844:	00000013          	nop
    4848:	00000013          	nop
    484c:	00000013          	nop
    4850:	00000013          	nop
    4854:	00000013          	nop
    4858:	00000013          	nop
    485c:	00000013          	nop
    4860:	00000013          	nop
    4864:	00000013          	nop
    4868:	00000013          	nop
    486c:	00000013          	nop
    4870:	00000013          	nop
    4874:	00000013          	nop
    4878:	00000013          	nop
    487c:	00000013          	nop
    4880:	00000013          	nop
    4884:	00000013          	nop
    4888:	00000013          	nop
    488c:	00000013          	nop
    4890:	00000013          	nop
    4894:	00000013          	nop
    4898:	00000013          	nop
    489c:	00000013          	nop
    48a0:	00000013          	nop
    48a4:	00000013          	nop
    48a8:	00000013          	nop
    48ac:	00000013          	nop
    48b0:	00000013          	nop
    48b4:	00000013          	nop
    48b8:	00000013          	nop
    48bc:	00000013          	nop
    48c0:	00000013          	nop
    48c4:	00000013          	nop
    48c8:	00000013          	nop
    48cc:	00000013          	nop
    48d0:	00000013          	nop
    48d4:	00000013          	nop
    48d8:	00000013          	nop
    48dc:	00000013          	nop
    48e0:	00000013          	nop
    48e4:	00000013          	nop
    48e8:	00000013          	nop
    48ec:	00000013          	nop
    48f0:	00000013          	nop
    48f4:	00000013          	nop
    48f8:	00000013          	nop
    48fc:	00000013          	nop
    4900:	00000013          	nop
    4904:	00000013          	nop
    4908:	00000013          	nop
    490c:	00000013          	nop
    4910:	00000013          	nop
    4914:	00000013          	nop
    4918:	00000013          	nop
    491c:	00000013          	nop
    4920:	00000013          	nop
    4924:	00000013          	nop
    4928:	00000013          	nop
    492c:	00000013          	nop
    4930:	00000013          	nop
    4934:	00000013          	nop
    4938:	00000013          	nop
    493c:	00000013          	nop
    4940:	00000013          	nop
    4944:	00000013          	nop
    4948:	00000013          	nop
    494c:	00000013          	nop
    4950:	00000013          	nop
    4954:	00000013          	nop
    4958:	00000013          	nop
    495c:	00000013          	nop
    4960:	00000013          	nop
    4964:	00000013          	nop
    4968:	00000013          	nop
    496c:	00000013          	nop
    4970:	00000013          	nop
    4974:	00000013          	nop
    4978:	00000013          	nop
    497c:	00000013          	nop
    4980:	00000013          	nop
    4984:	00000013          	nop
    4988:	00000013          	nop
    498c:	00000013          	nop
    4990:	00000013          	nop
    4994:	00000013          	nop
    4998:	00000013          	nop
    499c:	00000013          	nop
    49a0:	00000013          	nop
    49a4:	00000013          	nop
    49a8:	00000013          	nop
    49ac:	00000013          	nop
    49b0:	00000013          	nop
    49b4:	00000013          	nop
    49b8:	00000013          	nop
    49bc:	00000013          	nop
    49c0:	00000013          	nop
    49c4:	00000013          	nop
    49c8:	00000013          	nop
    49cc:	00000013          	nop
    49d0:	00000013          	nop
    49d4:	00000013          	nop
    49d8:	00000013          	nop
    49dc:	00000013          	nop
    49e0:	00000013          	nop
    49e4:	00000013          	nop
    49e8:	00000013          	nop
    49ec:	00000013          	nop
    49f0:	00000013          	nop
    49f4:	00000013          	nop
    49f8:	00000013          	nop
    49fc:	00000013          	nop
    4a00:	00000013          	nop
    4a04:	00000013          	nop
    4a08:	00000013          	nop
    4a0c:	00000013          	nop
    4a10:	00000013          	nop
    4a14:	00000013          	nop
    4a18:	00000013          	nop
    4a1c:	00000013          	nop
    4a20:	00000013          	nop
    4a24:	00000013          	nop
    4a28:	00000013          	nop
    4a2c:	00000013          	nop
    4a30:	00000013          	nop
    4a34:	00000013          	nop
    4a38:	00000013          	nop
    4a3c:	00000013          	nop
    4a40:	00000013          	nop
    4a44:	00000013          	nop
    4a48:	00000013          	nop
    4a4c:	00000013          	nop
    4a50:	00000013          	nop
    4a54:	00000013          	nop
    4a58:	00000013          	nop
    4a5c:	00000013          	nop
    4a60:	00000013          	nop
    4a64:	00000013          	nop
    4a68:	00000013          	nop
    4a6c:	00000013          	nop
    4a70:	00000013          	nop
    4a74:	00000013          	nop
    4a78:	00000013          	nop
    4a7c:	00000013          	nop
    4a80:	00000013          	nop
    4a84:	00000013          	nop
    4a88:	00000013          	nop
    4a8c:	00000013          	nop
    4a90:	00000013          	nop
    4a94:	00000013          	nop
    4a98:	00000013          	nop
    4a9c:	00000013          	nop
    4aa0:	00000013          	nop
    4aa4:	00000013          	nop
    4aa8:	00000013          	nop
    4aac:	00000013          	nop
    4ab0:	00000013          	nop
    4ab4:	00000013          	nop
    4ab8:	00000013          	nop
    4abc:	00000013          	nop
    4ac0:	00000013          	nop
    4ac4:	00000013          	nop
    4ac8:	00000013          	nop
    4acc:	00000013          	nop
    4ad0:	00000013          	nop
    4ad4:	00000013          	nop
    4ad8:	00000013          	nop
    4adc:	00000013          	nop
    4ae0:	00000013          	nop
    4ae4:	00000013          	nop
    4ae8:	00000013          	nop
    4aec:	00000013          	nop
    4af0:	00000013          	nop
    4af4:	00000013          	nop
    4af8:	00000013          	nop
    4afc:	00000013          	nop
    4b00:	00000013          	nop
    4b04:	00000013          	nop
    4b08:	00000013          	nop
    4b0c:	00000013          	nop
    4b10:	00000013          	nop
    4b14:	00000013          	nop
    4b18:	00000013          	nop
    4b1c:	00000013          	nop
    4b20:	00000013          	nop
    4b24:	00000013          	nop
    4b28:	00000013          	nop
    4b2c:	00000013          	nop
    4b30:	00000013          	nop
    4b34:	00000013          	nop
    4b38:	00000013          	nop
    4b3c:	00000013          	nop
    4b40:	00000013          	nop
    4b44:	00000013          	nop
    4b48:	00000013          	nop
    4b4c:	00000013          	nop
    4b50:	00000013          	nop
    4b54:	00000013          	nop
    4b58:	00000013          	nop
    4b5c:	00000013          	nop
    4b60:	00000013          	nop
    4b64:	00000013          	nop
    4b68:	00000013          	nop
    4b6c:	00000013          	nop
    4b70:	00000013          	nop
    4b74:	00000013          	nop
    4b78:	00000013          	nop
    4b7c:	00000013          	nop
    4b80:	00000013          	nop
    4b84:	00000013          	nop
    4b88:	00000013          	nop
    4b8c:	00000013          	nop
    4b90:	00000013          	nop
    4b94:	00000013          	nop
    4b98:	00000013          	nop
    4b9c:	00000013          	nop
    4ba0:	00000013          	nop
    4ba4:	00000013          	nop
    4ba8:	00000013          	nop
    4bac:	00000013          	nop
    4bb0:	00000013          	nop
    4bb4:	00000013          	nop
    4bb8:	00000013          	nop
    4bbc:	00000013          	nop
    4bc0:	00000013          	nop
    4bc4:	00000013          	nop
    4bc8:	00000013          	nop
    4bcc:	00000013          	nop
    4bd0:	00000013          	nop
    4bd4:	00000013          	nop
    4bd8:	00000013          	nop
    4bdc:	00000013          	nop
    4be0:	00000013          	nop
    4be4:	00000013          	nop
    4be8:	00000013          	nop
    4bec:	00000013          	nop
    4bf0:	00000013          	nop
    4bf4:	00000013          	nop
    4bf8:	00000013          	nop
    4bfc:	00000013          	nop
    4c00:	00000013          	nop
    4c04:	00000013          	nop
    4c08:	00000013          	nop
    4c0c:	00000013          	nop
    4c10:	00000013          	nop
    4c14:	00000013          	nop
    4c18:	00000013          	nop
    4c1c:	00000013          	nop
    4c20:	00000013          	nop
    4c24:	00000013          	nop
    4c28:	00000013          	nop
    4c2c:	00000013          	nop
    4c30:	00000013          	nop
    4c34:	00000013          	nop
    4c38:	00000013          	nop
    4c3c:	00000013          	nop
    4c40:	00000013          	nop
    4c44:	00000013          	nop
    4c48:	00000013          	nop
    4c4c:	00000013          	nop
    4c50:	00000013          	nop
    4c54:	00000013          	nop
    4c58:	00000013          	nop
    4c5c:	00000013          	nop
    4c60:	00000013          	nop
    4c64:	00000013          	nop
    4c68:	00000013          	nop
    4c6c:	00000013          	nop
    4c70:	00000013          	nop
    4c74:	00000013          	nop
    4c78:	00000013          	nop
    4c7c:	00000013          	nop
    4c80:	00000013          	nop
    4c84:	00000013          	nop
    4c88:	00000013          	nop
    4c8c:	00000013          	nop
    4c90:	00000013          	nop
    4c94:	00000013          	nop
    4c98:	00000013          	nop
    4c9c:	00000013          	nop
    4ca0:	00000013          	nop
    4ca4:	00000013          	nop
    4ca8:	00000013          	nop
    4cac:	00000013          	nop
    4cb0:	00000013          	nop
    4cb4:	00000013          	nop
    4cb8:	00000013          	nop
    4cbc:	00000013          	nop
    4cc0:	00000013          	nop
    4cc4:	00000013          	nop
    4cc8:	00000013          	nop
    4ccc:	00000013          	nop
    4cd0:	00000013          	nop
    4cd4:	00000013          	nop
    4cd8:	00000013          	nop
    4cdc:	00000013          	nop
    4ce0:	00000013          	nop
    4ce4:	00000013          	nop
    4ce8:	00000013          	nop
    4cec:	00000013          	nop
    4cf0:	00000013          	nop
    4cf4:	00000013          	nop
    4cf8:	00000013          	nop
    4cfc:	00000013          	nop
    4d00:	00000013          	nop
    4d04:	00000013          	nop
    4d08:	00000013          	nop
    4d0c:	00000013          	nop
    4d10:	00000013          	nop
    4d14:	00000013          	nop
    4d18:	00000013          	nop
    4d1c:	00000013          	nop
    4d20:	00000013          	nop
    4d24:	00000013          	nop
    4d28:	00000013          	nop
    4d2c:	00000013          	nop
    4d30:	00000013          	nop
    4d34:	00000013          	nop
    4d38:	00000013          	nop
    4d3c:	00000013          	nop
    4d40:	00000013          	nop
    4d44:	00000013          	nop
    4d48:	00000013          	nop
    4d4c:	00000013          	nop
    4d50:	00000013          	nop
    4d54:	00000013          	nop
    4d58:	00000013          	nop
    4d5c:	00000013          	nop
    4d60:	00000013          	nop
    4d64:	00000013          	nop
    4d68:	00000013          	nop
    4d6c:	00000013          	nop
    4d70:	00000013          	nop
    4d74:	00000013          	nop
    4d78:	00000013          	nop
    4d7c:	00000013          	nop
    4d80:	00000013          	nop
    4d84:	00000013          	nop
    4d88:	00000013          	nop
    4d8c:	00000013          	nop
    4d90:	00000013          	nop
    4d94:	00000013          	nop
    4d98:	00000013          	nop
    4d9c:	00000013          	nop
    4da0:	00000013          	nop
    4da4:	00000013          	nop
    4da8:	00000013          	nop
    4dac:	00000013          	nop
    4db0:	00000013          	nop
    4db4:	00000013          	nop
    4db8:	00000013          	nop
    4dbc:	00000013          	nop
    4dc0:	00000013          	nop
    4dc4:	00000013          	nop
    4dc8:	00000013          	nop
    4dcc:	00000013          	nop
    4dd0:	00000013          	nop
    4dd4:	00000013          	nop
    4dd8:	00000013          	nop
    4ddc:	00000013          	nop
    4de0:	00000013          	nop
    4de4:	00000013          	nop
    4de8:	00000013          	nop
    4dec:	00000013          	nop
    4df0:	00000013          	nop
    4df4:	00000013          	nop
    4df8:	00000013          	nop
    4dfc:	00000013          	nop
    4e00:	00000013          	nop
    4e04:	00000013          	nop
    4e08:	00000013          	nop
    4e0c:	00000013          	nop
    4e10:	00000013          	nop
    4e14:	00000013          	nop
    4e18:	00000013          	nop
    4e1c:	00000013          	nop
    4e20:	00000013          	nop
    4e24:	00000013          	nop
    4e28:	00000013          	nop
    4e2c:	00000013          	nop
    4e30:	00000013          	nop
    4e34:	00000013          	nop
    4e38:	00000013          	nop
    4e3c:	00000013          	nop
    4e40:	00000013          	nop
    4e44:	00000013          	nop
    4e48:	00000013          	nop
    4e4c:	00000013          	nop
    4e50:	00000013          	nop
    4e54:	00000013          	nop
    4e58:	00000013          	nop
    4e5c:	00000013          	nop
    4e60:	00000013          	nop
    4e64:	00000013          	nop
    4e68:	00000013          	nop
    4e6c:	00000013          	nop
    4e70:	00000013          	nop
    4e74:	00000013          	nop
    4e78:	00000013          	nop
    4e7c:	00000013          	nop
    4e80:	00000013          	nop
    4e84:	00000013          	nop
    4e88:	00000013          	nop
    4e8c:	00000013          	nop
    4e90:	00000013          	nop
    4e94:	00000013          	nop
    4e98:	00000013          	nop
    4e9c:	00000013          	nop
    4ea0:	00000013          	nop
    4ea4:	00000013          	nop
    4ea8:	00000013          	nop
    4eac:	00000013          	nop
    4eb0:	00000013          	nop
    4eb4:	00000013          	nop
    4eb8:	00000013          	nop
    4ebc:	00000013          	nop
    4ec0:	00000013          	nop
    4ec4:	00000013          	nop
    4ec8:	00000013          	nop
    4ecc:	00000013          	nop
    4ed0:	00000013          	nop
    4ed4:	00000013          	nop
    4ed8:	00000013          	nop
    4edc:	00000013          	nop
    4ee0:	00000013          	nop
    4ee4:	00000013          	nop
    4ee8:	00000013          	nop
    4eec:	00000013          	nop
    4ef0:	00000013          	nop
    4ef4:	00000013          	nop
    4ef8:	00000013          	nop
    4efc:	00000013          	nop
    4f00:	00000013          	nop
    4f04:	00000013          	nop
    4f08:	00000013          	nop
    4f0c:	00000013          	nop
    4f10:	00000013          	nop
    4f14:	00000013          	nop
    4f18:	00000013          	nop
    4f1c:	00000013          	nop
    4f20:	00000013          	nop
    4f24:	00000013          	nop
    4f28:	00000013          	nop
    4f2c:	00000013          	nop
    4f30:	00000013          	nop
    4f34:	00000013          	nop
    4f38:	00000013          	nop
    4f3c:	00000013          	nop
    4f40:	00000013          	nop
    4f44:	00000013          	nop
    4f48:	00000013          	nop
    4f4c:	00000013          	nop
    4f50:	00000013          	nop
    4f54:	00000013          	nop
    4f58:	00000013          	nop
    4f5c:	00000013          	nop
    4f60:	00000013          	nop
    4f64:	00000013          	nop
    4f68:	00000013          	nop
    4f6c:	00000013          	nop
    4f70:	00000013          	nop
    4f74:	00000013          	nop
    4f78:	00000013          	nop
    4f7c:	00000013          	nop
    4f80:	00000013          	nop
    4f84:	00000013          	nop
    4f88:	00000013          	nop
    4f8c:	00000013          	nop
    4f90:	00000013          	nop
    4f94:	00000013          	nop
    4f98:	00000013          	nop
    4f9c:	00000013          	nop
    4fa0:	00000013          	nop
    4fa4:	00000013          	nop
    4fa8:	00000013          	nop
    4fac:	00000013          	nop
    4fb0:	00000013          	nop
    4fb4:	00000013          	nop
    4fb8:	00000013          	nop
    4fbc:	00000013          	nop
    4fc0:	00000013          	nop
    4fc4:	00000013          	nop
    4fc8:	00000013          	nop
    4fcc:	00000013          	nop
    4fd0:	00000013          	nop
    4fd4:	00000013          	nop
    4fd8:	00000013          	nop
    4fdc:	00000013          	nop
    4fe0:	00000013          	nop
    4fe4:	00000013          	nop
    4fe8:	00000013          	nop
    4fec:	00000013          	nop
    4ff0:	00000013          	nop
    4ff4:	00000013          	nop
    4ff8:	00000013          	nop
    4ffc:	00000013          	nop
    5000:	00000013          	nop
    5004:	00000013          	nop
    5008:	00000013          	nop
    500c:	00000013          	nop
    5010:	00000013          	nop
    5014:	00000013          	nop
    5018:	00000013          	nop
    501c:	00000013          	nop
    5020:	00000013          	nop
    5024:	00000013          	nop
    5028:	00000013          	nop
    502c:	00000013          	nop
    5030:	00000013          	nop
    5034:	00000013          	nop
    5038:	00000013          	nop
    503c:	00000013          	nop
    5040:	00000013          	nop
    5044:	00000013          	nop
    5048:	00000013          	nop
    504c:	00000013          	nop
    5050:	00000013          	nop
    5054:	00000013          	nop
    5058:	00000013          	nop
    505c:	00000013          	nop
    5060:	00000013          	nop
    5064:	00000013          	nop
    5068:	00000013          	nop
    506c:	00000013          	nop
    5070:	00000013          	nop
    5074:	00000013          	nop
    5078:	00000013          	nop
    507c:	00000013          	nop
    5080:	00000013          	nop
    5084:	00000013          	nop
    5088:	00000013          	nop
    508c:	00000013          	nop
    5090:	00000013          	nop
    5094:	00000013          	nop
    5098:	00000013          	nop
    509c:	00000013          	nop
    50a0:	00000013          	nop
    50a4:	00000013          	nop
    50a8:	00000013          	nop
    50ac:	00000013          	nop
    50b0:	00000013          	nop
    50b4:	00000013          	nop
    50b8:	00000013          	nop
    50bc:	00000013          	nop
    50c0:	00000013          	nop
    50c4:	00000013          	nop
    50c8:	00000013          	nop
    50cc:	00000013          	nop
    50d0:	00000013          	nop
    50d4:	00000013          	nop
    50d8:	00000013          	nop
    50dc:	00000013          	nop
    50e0:	00000013          	nop
    50e4:	00000013          	nop
    50e8:	00000013          	nop
    50ec:	00000013          	nop
    50f0:	00000013          	nop
    50f4:	00000013          	nop
    50f8:	00000013          	nop
    50fc:	00000013          	nop
    5100:	00000013          	nop
    5104:	00000013          	nop
    5108:	00000013          	nop
    510c:	00000013          	nop
    5110:	00000013          	nop
    5114:	00000013          	nop
    5118:	00000013          	nop
    511c:	00000013          	nop
    5120:	00000013          	nop
    5124:	00000013          	nop
    5128:	00000013          	nop
    512c:	00000013          	nop
    5130:	00000013          	nop
    5134:	00000013          	nop
    5138:	00000013          	nop
    513c:	00000013          	nop
    5140:	00000013          	nop
    5144:	00000013          	nop
    5148:	00000013          	nop
    514c:	00000013          	nop
    5150:	00000013          	nop
    5154:	00000013          	nop
    5158:	00000013          	nop
    515c:	00000013          	nop
    5160:	00000013          	nop
    5164:	00000013          	nop
    5168:	00000013          	nop
    516c:	00000013          	nop
    5170:	00000013          	nop
    5174:	00000013          	nop
    5178:	00000013          	nop
    517c:	00000013          	nop
    5180:	00000013          	nop
    5184:	00000013          	nop
    5188:	00000013          	nop
    518c:	00000013          	nop
    5190:	00000013          	nop
    5194:	00000013          	nop
    5198:	00000013          	nop
    519c:	00000013          	nop
    51a0:	00000013          	nop
    51a4:	00000013          	nop
    51a8:	00000013          	nop
    51ac:	00000013          	nop
    51b0:	00000013          	nop
    51b4:	00000013          	nop
    51b8:	00000013          	nop
    51bc:	00000013          	nop
    51c0:	00000013          	nop
    51c4:	00000013          	nop
    51c8:	00000013          	nop
    51cc:	00000013          	nop
    51d0:	00000013          	nop
    51d4:	00000013          	nop
    51d8:	00000013          	nop
    51dc:	00000013          	nop
    51e0:	00000013          	nop
    51e4:	00000013          	nop
    51e8:	00000013          	nop
    51ec:	00000013          	nop
    51f0:	00000013          	nop
    51f4:	00000013          	nop
    51f8:	00000013          	nop
    51fc:	00000013          	nop
    5200:	00000013          	nop
    5204:	00000013          	nop
    5208:	00000013          	nop
    520c:	00000013          	nop
    5210:	00000013          	nop
    5214:	00000013          	nop
    5218:	00000013          	nop
    521c:	00000013          	nop
    5220:	00000013          	nop
    5224:	00000013          	nop
    5228:	00000013          	nop
    522c:	00000013          	nop
    5230:	00000013          	nop
    5234:	00000013          	nop
    5238:	00000013          	nop
    523c:	00000013          	nop
    5240:	00000013          	nop
    5244:	00000013          	nop
    5248:	00000013          	nop
    524c:	00000013          	nop
    5250:	00000013          	nop
    5254:	00000013          	nop
    5258:	00000013          	nop
    525c:	00000013          	nop
    5260:	00000013          	nop
    5264:	00000013          	nop
    5268:	00000013          	nop
    526c:	00000013          	nop
    5270:	00000013          	nop
    5274:	00000013          	nop
    5278:	00000013          	nop
    527c:	00000013          	nop
    5280:	00000013          	nop
    5284:	00000013          	nop
    5288:	00000013          	nop
    528c:	00000013          	nop
    5290:	00000013          	nop
    5294:	00000013          	nop
    5298:	00000013          	nop
    529c:	00000013          	nop
    52a0:	00000013          	nop
    52a4:	00000013          	nop
    52a8:	00000013          	nop
    52ac:	00000013          	nop
    52b0:	00000013          	nop
    52b4:	00000013          	nop
    52b8:	00000013          	nop
    52bc:	00000013          	nop
    52c0:	00000013          	nop
    52c4:	00000013          	nop
    52c8:	00000013          	nop
    52cc:	00000013          	nop
    52d0:	00000013          	nop
    52d4:	00000013          	nop
    52d8:	00000013          	nop
    52dc:	00000013          	nop
    52e0:	00000013          	nop
    52e4:	00000013          	nop
    52e8:	00000013          	nop
    52ec:	00000013          	nop
    52f0:	00000013          	nop
    52f4:	00000013          	nop
    52f8:	00000013          	nop
    52fc:	00000013          	nop
    5300:	00000013          	nop
    5304:	00000013          	nop
    5308:	00000013          	nop
    530c:	00000013          	nop
    5310:	00000013          	nop
    5314:	00000013          	nop
    5318:	00000013          	nop
    531c:	00000013          	nop
    5320:	00000013          	nop
    5324:	00000013          	nop
    5328:	00000013          	nop
    532c:	00000013          	nop
    5330:	00000013          	nop
    5334:	00000013          	nop
    5338:	00000013          	nop
    533c:	00000013          	nop
    5340:	00000013          	nop
    5344:	00000013          	nop
    5348:	00000013          	nop
    534c:	00000013          	nop
    5350:	00000013          	nop
    5354:	00000013          	nop
    5358:	00000013          	nop
    535c:	00000013          	nop
    5360:	00000013          	nop
    5364:	00000013          	nop
    5368:	00000013          	nop
    536c:	00000013          	nop
    5370:	00000013          	nop
    5374:	00000013          	nop
    5378:	00000013          	nop
    537c:	00000013          	nop
    5380:	00000013          	nop
    5384:	00000013          	nop
    5388:	00000013          	nop
    538c:	00000013          	nop
    5390:	00000013          	nop
    5394:	00000013          	nop
    5398:	00000013          	nop
    539c:	00000013          	nop
    53a0:	00000013          	nop
    53a4:	00000013          	nop
    53a8:	00000013          	nop
    53ac:	00000013          	nop
    53b0:	00000013          	nop
    53b4:	00000013          	nop
    53b8:	00000013          	nop
    53bc:	00000013          	nop
    53c0:	00000013          	nop
    53c4:	00000013          	nop
    53c8:	00000013          	nop
    53cc:	00000013          	nop
    53d0:	00000013          	nop
    53d4:	00000013          	nop
    53d8:	00000013          	nop
    53dc:	00000013          	nop
    53e0:	00000013          	nop
    53e4:	00000013          	nop
    53e8:	00000013          	nop
    53ec:	00000013          	nop
    53f0:	00000013          	nop
    53f4:	00000013          	nop
    53f8:	00000013          	nop
    53fc:	00000013          	nop
    5400:	00000013          	nop
    5404:	00000013          	nop
    5408:	00000013          	nop
    540c:	00000013          	nop
    5410:	00000013          	nop
    5414:	00000013          	nop
    5418:	00000013          	nop
    541c:	00000013          	nop
    5420:	00000013          	nop
    5424:	00000013          	nop
    5428:	00000013          	nop
    542c:	00000013          	nop
    5430:	00000013          	nop
    5434:	00000013          	nop
    5438:	00000013          	nop
    543c:	00000013          	nop
    5440:	00000013          	nop
    5444:	00000013          	nop
    5448:	00000013          	nop
    544c:	00000013          	nop
    5450:	00000013          	nop
    5454:	00000013          	nop
    5458:	00000013          	nop
    545c:	00000013          	nop
    5460:	00000013          	nop
    5464:	00000013          	nop
    5468:	00000013          	nop
    546c:	00000013          	nop
    5470:	00000013          	nop
    5474:	00000013          	nop
    5478:	00000013          	nop
    547c:	00000013          	nop
    5480:	00000013          	nop
    5484:	00000013          	nop
    5488:	00000013          	nop
    548c:	00000013          	nop
    5490:	00000013          	nop
    5494:	00000013          	nop
    5498:	00000013          	nop
    549c:	00000013          	nop
    54a0:	00000013          	nop
    54a4:	00000013          	nop
    54a8:	00000013          	nop
    54ac:	00000013          	nop
    54b0:	00000013          	nop
    54b4:	00000013          	nop
    54b8:	00000013          	nop
    54bc:	00000013          	nop
    54c0:	00000013          	nop
    54c4:	00000013          	nop
    54c8:	00000013          	nop
    54cc:	00000013          	nop
    54d0:	00000013          	nop
    54d4:	00000013          	nop
    54d8:	00000013          	nop
    54dc:	00000013          	nop
    54e0:	00000013          	nop
    54e4:	00000013          	nop
    54e8:	00000013          	nop
    54ec:	00000013          	nop
    54f0:	00000013          	nop
    54f4:	00000013          	nop
    54f8:	00000013          	nop
    54fc:	00000013          	nop
    5500:	00000013          	nop
    5504:	00000013          	nop
    5508:	00000013          	nop
    550c:	00000013          	nop
    5510:	00000013          	nop
    5514:	00000013          	nop
    5518:	00000013          	nop
    551c:	00000013          	nop
    5520:	00000013          	nop
    5524:	00000013          	nop
    5528:	00000013          	nop
    552c:	00000013          	nop
    5530:	00000013          	nop
    5534:	00000013          	nop
    5538:	00000013          	nop
    553c:	00000013          	nop
    5540:	00000013          	nop
    5544:	00000013          	nop
    5548:	00000013          	nop
    554c:	00000013          	nop
    5550:	00000013          	nop
    5554:	00000013          	nop
    5558:	00000013          	nop
    555c:	00000013          	nop
    5560:	00000013          	nop
    5564:	00000013          	nop
    5568:	00000013          	nop
    556c:	00000013          	nop
    5570:	00000013          	nop
    5574:	00000013          	nop
    5578:	00000013          	nop
    557c:	00000013          	nop
    5580:	00000013          	nop
    5584:	00000013          	nop
    5588:	00000013          	nop
    558c:	00000013          	nop
    5590:	00000013          	nop
    5594:	00000013          	nop
    5598:	00000013          	nop
    559c:	00000013          	nop
    55a0:	00000013          	nop
    55a4:	00000013          	nop
    55a8:	00000013          	nop
    55ac:	00000013          	nop
    55b0:	00000013          	nop
    55b4:	00000013          	nop
    55b8:	00000013          	nop
    55bc:	00000013          	nop
    55c0:	00000013          	nop
    55c4:	00000013          	nop
    55c8:	00000013          	nop
    55cc:	00000013          	nop
    55d0:	00000013          	nop
    55d4:	00000013          	nop
    55d8:	00000013          	nop
    55dc:	00000013          	nop
    55e0:	00000013          	nop
    55e4:	00000013          	nop
    55e8:	00000013          	nop
    55ec:	00000013          	nop
    55f0:	00000013          	nop
    55f4:	00000013          	nop
    55f8:	00000013          	nop
    55fc:	00000013          	nop
    5600:	00000013          	nop
    5604:	00000013          	nop
    5608:	00000013          	nop
    560c:	00000013          	nop
    5610:	00000013          	nop
    5614:	00000013          	nop
    5618:	00000013          	nop
    561c:	00000013          	nop
    5620:	00000013          	nop
    5624:	00000013          	nop
    5628:	00000013          	nop
    562c:	00000013          	nop
    5630:	00000013          	nop
    5634:	00000013          	nop
    5638:	00000013          	nop
    563c:	00000013          	nop
    5640:	00000013          	nop
    5644:	00000013          	nop
    5648:	00000013          	nop
    564c:	00000013          	nop
    5650:	00000013          	nop
    5654:	00000013          	nop
    5658:	00000013          	nop
    565c:	00000013          	nop
    5660:	00000013          	nop
    5664:	00000013          	nop
    5668:	00000013          	nop
    566c:	00000013          	nop
    5670:	00000013          	nop
    5674:	00000013          	nop
    5678:	00000013          	nop
    567c:	00000013          	nop
    5680:	00000013          	nop
    5684:	00000013          	nop
    5688:	00000013          	nop
    568c:	00000013          	nop
    5690:	00000013          	nop
    5694:	00000013          	nop
    5698:	00000013          	nop
    569c:	00000013          	nop
    56a0:	00000013          	nop
    56a4:	00000013          	nop
    56a8:	00000013          	nop
    56ac:	00000013          	nop
    56b0:	00000013          	nop
    56b4:	00000013          	nop
    56b8:	00000013          	nop
    56bc:	00000013          	nop
    56c0:	00000013          	nop
    56c4:	00000013          	nop
    56c8:	00000013          	nop
    56cc:	00000013          	nop
    56d0:	00000013          	nop
    56d4:	00000013          	nop
    56d8:	00000013          	nop
    56dc:	00000013          	nop
    56e0:	00000013          	nop
    56e4:	00000013          	nop
    56e8:	00000013          	nop
    56ec:	00000013          	nop
    56f0:	00000013          	nop
    56f4:	00000013          	nop
    56f8:	00000013          	nop
    56fc:	00000013          	nop
    5700:	00000013          	nop
    5704:	00000013          	nop
    5708:	00000013          	nop
    570c:	00000013          	nop
    5710:	00000013          	nop
    5714:	00000013          	nop
    5718:	00000013          	nop
    571c:	00000013          	nop
    5720:	00000013          	nop
    5724:	00000013          	nop
    5728:	00000013          	nop
    572c:	00000013          	nop
    5730:	00000013          	nop
    5734:	00000013          	nop
    5738:	00000013          	nop
    573c:	00000013          	nop
    5740:	00000013          	nop
    5744:	00000013          	nop
    5748:	00000013          	nop
    574c:	00000013          	nop
    5750:	00000013          	nop
    5754:	00000013          	nop
    5758:	00000013          	nop
    575c:	00000013          	nop
    5760:	00000013          	nop
    5764:	00000013          	nop
    5768:	00000013          	nop
    576c:	00000013          	nop
    5770:	00000013          	nop
    5774:	00000013          	nop
    5778:	00000013          	nop
    577c:	00000013          	nop
    5780:	00000013          	nop
    5784:	00000013          	nop
    5788:	00000013          	nop
    578c:	00000013          	nop
    5790:	00000013          	nop
    5794:	00000013          	nop
    5798:	00000013          	nop
    579c:	00000013          	nop
    57a0:	00000013          	nop
    57a4:	00000013          	nop
    57a8:	00000013          	nop
    57ac:	00000013          	nop
    57b0:	00000013          	nop
    57b4:	00000013          	nop
    57b8:	00000013          	nop
    57bc:	00000013          	nop
    57c0:	00000013          	nop
    57c4:	00000013          	nop
    57c8:	00000013          	nop
    57cc:	00000013          	nop
    57d0:	00000013          	nop
    57d4:	00000013          	nop
    57d8:	00000013          	nop
    57dc:	00000013          	nop
    57e0:	00000013          	nop
    57e4:	00000013          	nop
    57e8:	00000013          	nop
    57ec:	00000013          	nop
    57f0:	00000013          	nop
    57f4:	00000013          	nop
    57f8:	00000013          	nop
    57fc:	00000013          	nop
    5800:	00000013          	nop
    5804:	00000013          	nop
    5808:	00000013          	nop
    580c:	00000013          	nop
    5810:	00000013          	nop
    5814:	00000013          	nop
    5818:	00000013          	nop
    581c:	00000013          	nop
    5820:	00000013          	nop
    5824:	00000013          	nop
    5828:	00000013          	nop
    582c:	00000013          	nop
    5830:	00000013          	nop
    5834:	00000013          	nop
    5838:	00000013          	nop
    583c:	00000013          	nop
    5840:	00000013          	nop
    5844:	00000013          	nop
    5848:	00000013          	nop
    584c:	00000013          	nop
    5850:	00000013          	nop
    5854:	00000013          	nop
    5858:	00000013          	nop
    585c:	00000013          	nop
    5860:	00000013          	nop
    5864:	00000013          	nop
    5868:	00000013          	nop
    586c:	00000013          	nop
    5870:	00000013          	nop
    5874:	00000013          	nop
    5878:	00000013          	nop
    587c:	00000013          	nop
    5880:	00000013          	nop
    5884:	00000013          	nop
    5888:	00000013          	nop
    588c:	00000013          	nop
    5890:	00000013          	nop
    5894:	00000013          	nop
    5898:	00000013          	nop
    589c:	00000013          	nop
    58a0:	00000013          	nop
    58a4:	00000013          	nop
    58a8:	00000013          	nop
    58ac:	00000013          	nop
    58b0:	00000013          	nop
    58b4:	00000013          	nop
    58b8:	00000013          	nop
    58bc:	00000013          	nop
    58c0:	00000013          	nop
    58c4:	00000013          	nop
    58c8:	00000013          	nop
    58cc:	00000013          	nop
    58d0:	00000013          	nop
    58d4:	00000013          	nop
    58d8:	00000013          	nop
    58dc:	00000013          	nop
    58e0:	00000013          	nop
    58e4:	00000013          	nop
    58e8:	00000013          	nop
    58ec:	00000013          	nop
    58f0:	00000013          	nop
    58f4:	00000013          	nop
    58f8:	00000013          	nop
    58fc:	00000013          	nop
    5900:	00000013          	nop
    5904:	00000013          	nop
    5908:	00000013          	nop
    590c:	00000013          	nop
    5910:	00000013          	nop
    5914:	00000013          	nop
    5918:	00000013          	nop
    591c:	00000013          	nop
    5920:	00000013          	nop
    5924:	00000013          	nop
    5928:	00000013          	nop
    592c:	00000013          	nop
    5930:	00000013          	nop
    5934:	00000013          	nop
    5938:	00000013          	nop
    593c:	00000013          	nop
    5940:	00000013          	nop
    5944:	00000013          	nop
    5948:	00000013          	nop
    594c:	00000013          	nop
    5950:	00000013          	nop
    5954:	00000013          	nop
    5958:	00000013          	nop
    595c:	00000013          	nop
    5960:	00000013          	nop
    5964:	00000013          	nop
    5968:	00000013          	nop
    596c:	00000013          	nop
    5970:	00000013          	nop
    5974:	00000013          	nop
    5978:	00000013          	nop
    597c:	00000013          	nop
    5980:	00000013          	nop
    5984:	00000013          	nop
    5988:	00000013          	nop
    598c:	00000013          	nop
    5990:	00000013          	nop
    5994:	00000013          	nop
    5998:	00000013          	nop
    599c:	00000013          	nop
    59a0:	00000013          	nop
    59a4:	00000013          	nop
    59a8:	00000013          	nop
    59ac:	00000013          	nop
    59b0:	00000013          	nop
    59b4:	00000013          	nop
    59b8:	00000013          	nop
    59bc:	00000013          	nop
    59c0:	00000013          	nop
    59c4:	00000013          	nop
    59c8:	00000013          	nop
    59cc:	00000013          	nop
    59d0:	00000013          	nop
    59d4:	00000013          	nop
    59d8:	00000013          	nop
    59dc:	00000013          	nop
    59e0:	00000013          	nop
    59e4:	00000013          	nop
    59e8:	00000013          	nop
    59ec:	00000013          	nop
    59f0:	00000013          	nop
    59f4:	00000013          	nop
    59f8:	00000013          	nop
    59fc:	00000013          	nop
    5a00:	00000013          	nop
    5a04:	00000013          	nop
    5a08:	00000013          	nop
    5a0c:	00000013          	nop
    5a10:	00000013          	nop
    5a14:	00000013          	nop
    5a18:	00000013          	nop
    5a1c:	00000013          	nop
    5a20:	00000013          	nop
    5a24:	00000013          	nop
    5a28:	00000013          	nop
    5a2c:	00000013          	nop
    5a30:	00000013          	nop
    5a34:	00000013          	nop
    5a38:	00000013          	nop
    5a3c:	00000013          	nop
    5a40:	00000013          	nop
    5a44:	00000013          	nop
    5a48:	00000013          	nop
    5a4c:	00000013          	nop
    5a50:	00000013          	nop
    5a54:	00000013          	nop
    5a58:	00000013          	nop
    5a5c:	00000013          	nop
    5a60:	00000013          	nop
    5a64:	00000013          	nop
    5a68:	00000013          	nop
    5a6c:	00000013          	nop
    5a70:	00000013          	nop
    5a74:	00000013          	nop
    5a78:	00000013          	nop
    5a7c:	00000013          	nop
    5a80:	00000013          	nop
    5a84:	00000013          	nop
    5a88:	00000013          	nop
    5a8c:	00000013          	nop
    5a90:	00000013          	nop
    5a94:	00000013          	nop
    5a98:	00000013          	nop
    5a9c:	00000013          	nop
    5aa0:	00000013          	nop
    5aa4:	00000013          	nop
    5aa8:	00000013          	nop
    5aac:	00000013          	nop
    5ab0:	00000013          	nop
    5ab4:	00000013          	nop
    5ab8:	00000013          	nop
    5abc:	00000013          	nop
    5ac0:	00000013          	nop
    5ac4:	00000013          	nop
    5ac8:	00000013          	nop
    5acc:	00000013          	nop
    5ad0:	00000013          	nop
    5ad4:	00000013          	nop
    5ad8:	00000013          	nop
    5adc:	00000013          	nop
    5ae0:	00000013          	nop
    5ae4:	00000013          	nop
    5ae8:	00000013          	nop
    5aec:	00000013          	nop
    5af0:	00000013          	nop
    5af4:	00000013          	nop
    5af8:	00000013          	nop
    5afc:	00000013          	nop
    5b00:	00000013          	nop
    5b04:	00000013          	nop
    5b08:	00000013          	nop
    5b0c:	00000013          	nop
    5b10:	00000013          	nop
    5b14:	00000013          	nop
    5b18:	00000013          	nop
    5b1c:	00000013          	nop
    5b20:	00000013          	nop
    5b24:	00000013          	nop
    5b28:	00000013          	nop
    5b2c:	00000013          	nop
    5b30:	00000013          	nop
    5b34:	00000013          	nop
    5b38:	00000013          	nop
    5b3c:	00000013          	nop
    5b40:	00000013          	nop
    5b44:	00000013          	nop
    5b48:	00000013          	nop
    5b4c:	00000013          	nop
    5b50:	00000013          	nop
    5b54:	00000013          	nop
    5b58:	00000013          	nop
    5b5c:	00000013          	nop
    5b60:	00000013          	nop
    5b64:	00000013          	nop
    5b68:	00000013          	nop
    5b6c:	00000013          	nop
    5b70:	00000013          	nop
    5b74:	00000013          	nop
    5b78:	00000013          	nop
    5b7c:	00000013          	nop
    5b80:	00000013          	nop
    5b84:	00000013          	nop
    5b88:	00000013          	nop
    5b8c:	00000013          	nop
    5b90:	00000013          	nop
    5b94:	00000013          	nop
    5b98:	00000013          	nop
    5b9c:	00000013          	nop
    5ba0:	00000013          	nop
    5ba4:	00000013          	nop
    5ba8:	00000013          	nop
    5bac:	00000013          	nop
    5bb0:	00000013          	nop
    5bb4:	00000013          	nop
    5bb8:	00000013          	nop
    5bbc:	00000013          	nop
    5bc0:	00000013          	nop
    5bc4:	00000013          	nop
    5bc8:	00000013          	nop
    5bcc:	00000013          	nop
    5bd0:	00000013          	nop
    5bd4:	00000013          	nop
    5bd8:	00000013          	nop
    5bdc:	00000013          	nop
    5be0:	00000013          	nop
    5be4:	00000013          	nop
    5be8:	00000013          	nop
    5bec:	00000013          	nop
    5bf0:	00000013          	nop
    5bf4:	00000013          	nop
    5bf8:	00000013          	nop
    5bfc:	00000013          	nop
    5c00:	00000013          	nop
    5c04:	00000013          	nop
    5c08:	00000013          	nop
    5c0c:	00000013          	nop
    5c10:	00000013          	nop
    5c14:	00000013          	nop
    5c18:	00000013          	nop
    5c1c:	00000013          	nop
    5c20:	00000013          	nop
    5c24:	00000013          	nop
    5c28:	00000013          	nop
    5c2c:	00000013          	nop
    5c30:	00000013          	nop
    5c34:	00000013          	nop
    5c38:	00000013          	nop
    5c3c:	00000013          	nop
    5c40:	00000013          	nop
    5c44:	00000013          	nop
    5c48:	00000013          	nop
    5c4c:	00000013          	nop
    5c50:	00000013          	nop
    5c54:	00000013          	nop
    5c58:	00000013          	nop
    5c5c:	00000013          	nop
    5c60:	00000013          	nop
    5c64:	00000013          	nop
    5c68:	00000013          	nop
    5c6c:	00000013          	nop
    5c70:	00000013          	nop
    5c74:	00000013          	nop
    5c78:	00000013          	nop
    5c7c:	00000013          	nop
    5c80:	00000013          	nop
    5c84:	00000013          	nop
    5c88:	00000013          	nop
    5c8c:	00000013          	nop
    5c90:	00000013          	nop
    5c94:	00000013          	nop
    5c98:	00000013          	nop
    5c9c:	00000013          	nop
    5ca0:	00000013          	nop
    5ca4:	00000013          	nop
    5ca8:	00000013          	nop
    5cac:	00000013          	nop
    5cb0:	00000013          	nop
    5cb4:	00000013          	nop
    5cb8:	00000013          	nop
    5cbc:	00000013          	nop
    5cc0:	00000013          	nop
    5cc4:	00000013          	nop
    5cc8:	00000013          	nop
    5ccc:	00000013          	nop
    5cd0:	00000013          	nop
    5cd4:	00000013          	nop
    5cd8:	00000013          	nop
    5cdc:	00000013          	nop
    5ce0:	00000013          	nop
    5ce4:	00000013          	nop
    5ce8:	00000013          	nop
    5cec:	00000013          	nop
    5cf0:	00000013          	nop
    5cf4:	00000013          	nop
    5cf8:	00000013          	nop
    5cfc:	00000013          	nop
    5d00:	00000013          	nop
    5d04:	00000013          	nop
    5d08:	00000013          	nop
    5d0c:	00000013          	nop
    5d10:	00000013          	nop
    5d14:	00000013          	nop
    5d18:	00000013          	nop
    5d1c:	00000013          	nop
    5d20:	00000013          	nop
    5d24:	00000013          	nop
    5d28:	00000013          	nop
    5d2c:	00000013          	nop
    5d30:	00000013          	nop
    5d34:	00000013          	nop
    5d38:	00000013          	nop
    5d3c:	00000013          	nop
    5d40:	00000013          	nop
    5d44:	00000013          	nop
    5d48:	00000013          	nop
    5d4c:	00000013          	nop
    5d50:	00000013          	nop
    5d54:	00000013          	nop
    5d58:	00000013          	nop
    5d5c:	00000013          	nop
    5d60:	00000013          	nop
    5d64:	00000013          	nop
    5d68:	00000013          	nop
    5d6c:	00000013          	nop
    5d70:	00000013          	nop
    5d74:	00000013          	nop
    5d78:	00000013          	nop
    5d7c:	00000013          	nop
    5d80:	00000013          	nop
    5d84:	00000013          	nop
    5d88:	00000013          	nop
    5d8c:	00000013          	nop
    5d90:	00000013          	nop
    5d94:	00000013          	nop
    5d98:	00000013          	nop
    5d9c:	00000013          	nop
    5da0:	00000013          	nop
    5da4:	00000013          	nop
    5da8:	00000013          	nop
    5dac:	00000013          	nop
    5db0:	00000013          	nop
    5db4:	00000013          	nop
    5db8:	00000013          	nop
    5dbc:	00000013          	nop
    5dc0:	00000013          	nop
    5dc4:	00000013          	nop
    5dc8:	00000013          	nop
    5dcc:	00000013          	nop
    5dd0:	00000013          	nop
    5dd4:	00000013          	nop
    5dd8:	00000013          	nop
    5ddc:	00000013          	nop
    5de0:	00000013          	nop
    5de4:	00000013          	nop
    5de8:	00000013          	nop
    5dec:	00000013          	nop
    5df0:	00000013          	nop
    5df4:	00000013          	nop
    5df8:	00000013          	nop
    5dfc:	00000013          	nop
    5e00:	00000013          	nop
    5e04:	00000013          	nop
    5e08:	00000013          	nop
    5e0c:	00000013          	nop
    5e10:	00000013          	nop
    5e14:	00000013          	nop
    5e18:	00000013          	nop
    5e1c:	00000013          	nop
    5e20:	00000013          	nop
    5e24:	00000013          	nop
    5e28:	00000013          	nop
    5e2c:	00000013          	nop
    5e30:	00000013          	nop
    5e34:	00000013          	nop
    5e38:	00000013          	nop
    5e3c:	00000013          	nop
    5e40:	00000013          	nop
    5e44:	00000013          	nop
    5e48:	00000013          	nop
    5e4c:	00000013          	nop
    5e50:	00000013          	nop
    5e54:	00000013          	nop
    5e58:	00000013          	nop
    5e5c:	00000013          	nop
    5e60:	00000013          	nop
    5e64:	00000013          	nop
    5e68:	00000013          	nop
    5e6c:	00000013          	nop
    5e70:	00000013          	nop
    5e74:	00000013          	nop
    5e78:	00000013          	nop
    5e7c:	00000013          	nop
    5e80:	00000013          	nop
    5e84:	00000013          	nop
    5e88:	00000013          	nop
    5e8c:	00000013          	nop
    5e90:	00000013          	nop
    5e94:	00000013          	nop
    5e98:	00000013          	nop
    5e9c:	00000013          	nop
    5ea0:	00000013          	nop
    5ea4:	00000013          	nop
    5ea8:	00000013          	nop
    5eac:	00000013          	nop
    5eb0:	00000013          	nop
    5eb4:	00000013          	nop
    5eb8:	00000013          	nop
    5ebc:	00000013          	nop
    5ec0:	00000013          	nop
    5ec4:	00000013          	nop
    5ec8:	00000013          	nop
    5ecc:	00000013          	nop
    5ed0:	00000013          	nop
    5ed4:	00000013          	nop
    5ed8:	00000013          	nop
    5edc:	00000013          	nop
    5ee0:	00000013          	nop
    5ee4:	00000013          	nop
    5ee8:	00000013          	nop
    5eec:	00000013          	nop
    5ef0:	00000013          	nop
    5ef4:	00000013          	nop
    5ef8:	00000013          	nop
    5efc:	00000013          	nop
    5f00:	00000013          	nop
    5f04:	00000013          	nop
    5f08:	00000013          	nop
    5f0c:	00000013          	nop
    5f10:	00000013          	nop
    5f14:	00000013          	nop
    5f18:	00000013          	nop
    5f1c:	00000013          	nop
    5f20:	00000013          	nop
    5f24:	00000013          	nop
    5f28:	00000013          	nop
    5f2c:	00000013          	nop
    5f30:	00000013          	nop
    5f34:	00000013          	nop
    5f38:	00000013          	nop
    5f3c:	00000013          	nop
    5f40:	00000013          	nop
    5f44:	00000013          	nop
    5f48:	00000013          	nop
    5f4c:	00000013          	nop
    5f50:	00000013          	nop
    5f54:	00000013          	nop
    5f58:	00000013          	nop
    5f5c:	00000013          	nop
    5f60:	00000013          	nop
    5f64:	00000013          	nop
    5f68:	00000013          	nop
    5f6c:	00000013          	nop
    5f70:	00000013          	nop
    5f74:	00000013          	nop
    5f78:	00000013          	nop
    5f7c:	00000013          	nop
    5f80:	00000013          	nop
    5f84:	00000013          	nop
    5f88:	00000013          	nop
    5f8c:	00000013          	nop
    5f90:	00000013          	nop
    5f94:	00000013          	nop
    5f98:	00000013          	nop
    5f9c:	00000013          	nop
    5fa0:	00000013          	nop
    5fa4:	00000013          	nop
    5fa8:	00000013          	nop
    5fac:	00000013          	nop
    5fb0:	00000013          	nop
    5fb4:	00000013          	nop
    5fb8:	00000013          	nop
    5fbc:	00000013          	nop
    5fc0:	00000013          	nop
    5fc4:	00000013          	nop
    5fc8:	00000013          	nop
    5fcc:	00000013          	nop
    5fd0:	00000013          	nop
    5fd4:	00000013          	nop
    5fd8:	00000013          	nop
    5fdc:	00000013          	nop
    5fe0:	00000013          	nop
    5fe4:	00000013          	nop
    5fe8:	00000013          	nop
    5fec:	00000013          	nop
    5ff0:	00000013          	nop
    5ff4:	00000013          	nop
    5ff8:	00000013          	nop
    5ffc:	00000013          	nop

0000000000006000 <memset>:
    6000:	00700c13          	li	a6,7
    6004:	00090813          	mv	v0,a0
    6008:	054c7a63          	bleu	a2,a6,605c <.tiny>
    600c:	00797b93          	andi	a5,a0,7
    6010:	0a0b9063          	bnez	a5,60b0 <.misaligned>

0000000000006014 <.aligned>:
    6014:	06099e63          	bnez	a1,6090 <.wordify>

0000000000006018 <.wordified>:
    6018:	ff0a0a93          	addi	a3,a2,-16 # 1ff0 <_start-0x10>
    601c:	014aec63          	bltu	a3,a2,6034 <.block16>

0000000000006020 <.8to15>:
    6020:	01393023          	sd	a1,0(a0) # 7e000 <_end+0x6e000>
    6024:	00890913          	addi	a0,a0,8
    6028:	ff8a0a13          	addi	a2,a2,-8
    602c:	020a1863          	bnez	a2,605c <.tiny>
    6030:	00008067          	ret

0000000000006034 <.block16>:
    6034:	01490bb3          	add	a5,a0,a2
    6038:	012a8ab3          	add	a3,a3,a0
    603c:	01393023          	sd	a1,0(a0)
    6040:	01393423          	sd	a1,8(a0)
    6044:	01090913          	addi	a0,a0,16
    6048:	ff2afae3          	bleu	a0,a3,603c <.block16+0x8>
    604c:	01791463          	bne	a0,a5,6054 <.more>
    6050:	00008067          	ret

0000000000006054 <.more>:
    6054:	412b8a33          	sub	a2,a5,a0
    6058:	fd4c64e3          	bltu	a6,a2,6020 <.8to15>

000000000000605c <.tiny>:
    605c:	414c0ab3          	sub	a3,a6,a2
    6060:	002a9a93          	slli	a3,a3,0x2
    6064:	00006b37          	lui	a4,0x6
    6068:	016a8ab3          	add	a3,a3,a4
    606c:	070a8067          	jr	a3,112
    6070:	01390323          	sb	a1,6(a0)
    6074:	013902a3          	sb	a1,5(a0)
    6078:	01390223          	sb	a1,4(a0)
    607c:	013901a3          	sb	a1,3(a0)
    6080:	01390123          	sb	a1,2(a0)
    6084:	013900a3          	sb	a1,1(a0)
    6088:	01390023          	sb	a1,0(a0)
    608c:	00008067          	ret

0000000000006090 <.wordify>:
    6090:	0ff9f993          	andi	a1,a1,255
    6094:	00899a93          	slli	a3,a1,0x8
    6098:	0159e9b3          	or	a1,a1,a3
    609c:	01099a93          	slli	a3,a1,0x10
    60a0:	0159e9b3          	or	a1,a1,a3
    60a4:	02099a93          	slli	a3,a1,0x20
    60a8:	0159e9b3          	or	a1,a1,a3
    60ac:	f6dff06f          	j	6018 <.wordified>

00000000000060b0 <.misaligned>:
    60b0:	002b9a93          	slli	a3,a5,0x2
    60b4:	00006b37          	lui	a4,0x6
    60b8:	016a8ab3          	add	a3,a3,a4
    60bc:	0bca8067          	jr	a3,188
    60c0:	01390323          	sb	a1,6(a0)
    60c4:	013902a3          	sb	a1,5(a0)
    60c8:	01390223          	sb	a1,4(a0)
    60cc:	013901a3          	sb	a1,3(a0)
    60d0:	01390123          	sb	a1,2(a0)
    60d4:	013900a3          	sb	a1,1(a0)
    60d8:	01390023          	sb	a1,0(a0)
    60dc:	ff8b8b93          	addi	a5,a5,-8
    60e0:	41790933          	sub	a0,a0,a5
    60e4:	017a0a33          	add	a2,a2,a5
    60e8:	f74c7ae3          	bleu	a2,a6,605c <.tiny>
    60ec:	f29ff06f          	j	6014 <.aligned>
