
rv64ui-p-vec-srli:     file format elf64-littleriscv


Disassembly of section .text:

0000000000002000 <_start>:
    2000:	50b02973          	csrr	a0,hartid
    2004:	00091063          	bnez	a0,2004 <_start+0x4>
    2008:	10000913          	li	a0,256
    200c:	50a92073          	csrs	status,a0
    2010:	50a029f3          	csrr	a1,status
    2014:	01397933          	and	a0,a0,a1
    2018:	00091863          	bnez	a0,2028 <test_2>
    201c:	0ff0000f          	fence
    2020:	51e0d073          	csrwi	tohost,1
    2024:	00000063          	b	2024 <_start+0x24>

0000000000002028 <test_2>:
    2028:	0040200b          	vsetcfg	4,0
    202c:	00001ab7          	lui	a3,0x1
    2030:	800a8a9b          	addiw	a3,a3,-2048
    2034:	000aea8b          	vsetvl	a3,a3
    2038:	00002937          	lui	a0,0x2
    203c:	06192c2b          	vf	120(a0) # 2078 <vtcode2>
    2040:	00001b17          	auipc	a4,0x1
    2044:	a10b0b13          	addi	a4,a4,-1520 # 2a50 <begin_signature>
    2048:	060b21fb          	vsd	vx3,a4
    204c:	0ff0000f          	fence
    2050:	800009b7          	lui	a1,0x80000
    2054:	00000a13          	li	a2,0
    2058:	00200e13          	li	t2,2

000000000000205c <test_loop2>:
    205c:	000b3903          	ld	a0,0(a4)
    2060:	01390463          	beq	a0,a1,2068 <skip2>
    2064:	1c90006f          	j	2a2c <fail>

0000000000002068 <skip2>:
    2068:	008b0b13          	addi	a4,a4,8
    206c:	001a0a13          	addi	a2,a2,1
    2070:	ff5a16e3          	bne	a2,a3,205c <test_loop2>
    2074:	0100006f          	j	2084 <next2>

0000000000002078 <vtcode2>:
    2078:	800000b7          	lui	ra,0x80000
    207c:	0000d193          	srli	s1,ra,0x0
    2080:	00005077          	stop

0000000000002084 <next2>:
    2084:	0040200b          	vsetcfg	4,0
    2088:	00001ab7          	lui	a3,0x1
    208c:	800a8a9b          	addiw	a3,a3,-2048
    2090:	000aea8b          	vsetvl	a3,a3
    2094:	00002937          	lui	a0,0x2
    2098:	0e19242b          	vf	232(a0) # 20e8 <vtcode3>
    209c:	00001b17          	auipc	a4,0x1
    20a0:	9b4b0b13          	addi	a4,a4,-1612 # 2a50 <begin_signature>
    20a4:	060b21fb          	vsd	vx3,a4
    20a8:	0ff0000f          	fence
    20ac:	400009b7          	lui	a1,0x40000
    20b0:	fff9899b          	addiw	a1,a1,-1
    20b4:	00b99993          	slli	a1,a1,0xb
    20b8:	70098993          	addi	a1,a1,1792 # 40000700 <_end+0x3fff9cb0>
    20bc:	00b99993          	slli	a1,a1,0xb
    20c0:	00b99993          	slli	a1,a1,0xb
    20c4:	00000a13          	li	a2,0
    20c8:	00300e13          	li	t2,3

00000000000020cc <test_loop3>:
    20cc:	000b3903          	ld	a0,0(a4)
    20d0:	01390463          	beq	a0,a1,20d8 <skip3>
    20d4:	1590006f          	j	2a2c <fail>

00000000000020d8 <skip3>:
    20d8:	008b0b13          	addi	a4,a4,8
    20dc:	001a0a13          	addi	a2,a2,1
    20e0:	ff5a16e3          	bne	a2,a3,20cc <test_loop3>
    20e4:	0100006f          	j	20f4 <next3>

00000000000020e8 <vtcode3>:
    20e8:	800000b7          	lui	ra,0x80000
    20ec:	0010d193          	srli	s1,ra,0x1
    20f0:	00005077          	stop

00000000000020f4 <next3>:
    20f4:	0040200b          	vsetcfg	4,0
    20f8:	00001ab7          	lui	a3,0x1
    20fc:	800a8a9b          	addiw	a3,a3,-2048
    2100:	000aea8b          	vsetvl	a3,a3
    2104:	00002937          	lui	a0,0x2
    2108:	14192c2b          	vf	344(a0) # 2158 <vtcode4>
    210c:	00001b17          	auipc	a4,0x1
    2110:	944b0b13          	addi	a4,a4,-1724 # 2a50 <begin_signature>
    2114:	060b21fb          	vsd	vx3,a4
    2118:	0ff0000f          	fence
    211c:	010009b7          	lui	a1,0x1000
    2120:	fff9899b          	addiw	a1,a1,-1
    2124:	00b99993          	slli	a1,a1,0xb
    2128:	7fc98993          	addi	a1,a1,2044 # 10007fc <_end+0xff9dac>
    212c:	00b99993          	slli	a1,a1,0xb
    2130:	00b99993          	slli	a1,a1,0xb
    2134:	00000a13          	li	a2,0
    2138:	00400e13          	li	t2,4

000000000000213c <test_loop4>:
    213c:	000b3903          	ld	a0,0(a4)
    2140:	01390463          	beq	a0,a1,2148 <skip4>
    2144:	0e90006f          	j	2a2c <fail>

0000000000002148 <skip4>:
    2148:	008b0b13          	addi	a4,a4,8
    214c:	001a0a13          	addi	a2,a2,1
    2150:	ff5a16e3          	bne	a2,a3,213c <test_loop4>
    2154:	0100006f          	j	2164 <next4>

0000000000002158 <vtcode4>:
    2158:	800000b7          	lui	ra,0x80000
    215c:	0070d193          	srli	s1,ra,0x7
    2160:	00005077          	stop

0000000000002164 <next4>:
    2164:	0040200b          	vsetcfg	4,0
    2168:	00001ab7          	lui	a3,0x1
    216c:	800a8a9b          	addiw	a3,a3,-2048
    2170:	000aea8b          	vsetvl	a3,a3
    2174:	00002937          	lui	a0,0x2
    2178:	1c19222b          	vf	452(a0) # 21c4 <vtcode5>
    217c:	00001b17          	auipc	a4,0x1
    2180:	8d4b0b13          	addi	a4,a4,-1836 # 2a50 <begin_signature>
    2184:	060b21fb          	vsd	vx3,a4
    2188:	0ff0000f          	fence
    218c:	100009b7          	lui	a1,0x10000
    2190:	fff9899b          	addiw	a1,a1,-1
    2194:	00b99993          	slli	a1,a1,0xb
    2198:	7c098993          	addi	a1,a1,1984 # 100007c0 <_end+0xfff9d70>
    219c:	00b99993          	slli	a1,a1,0xb
    21a0:	00000a13          	li	a2,0
    21a4:	00500e13          	li	t2,5

00000000000021a8 <test_loop5>:
    21a8:	000b3903          	ld	a0,0(a4)
    21ac:	01390463          	beq	a0,a1,21b4 <skip5>
    21b0:	07d0006f          	j	2a2c <fail>

00000000000021b4 <skip5>:
    21b4:	008b0b13          	addi	a4,a4,8
    21b8:	001a0a13          	addi	a2,a2,1
    21bc:	ff5a16e3          	bne	a2,a3,21a8 <test_loop5>
    21c0:	0100006f          	j	21d0 <next5>

00000000000021c4 <vtcode5>:
    21c4:	800000b7          	lui	ra,0x80000
    21c8:	00e0d193          	srli	s1,ra,0xe
    21cc:	00005077          	stop

00000000000021d0 <next5>:
    21d0:	0040200b          	vsetcfg	4,0
    21d4:	00001ab7          	lui	a3,0x1
    21d8:	800a8a9b          	addiw	a3,a3,-2048
    21dc:	000aea8b          	vsetvl	a3,a3
    21e0:	00002937          	lui	a0,0x2
    21e4:	2219262b          	vf	556(a0) # 222c <vtcode6>
    21e8:	00001b17          	auipc	a4,0x1
    21ec:	868b0b13          	addi	a4,a4,-1944 # 2a50 <begin_signature>
    21f0:	060b21fb          	vsd	vx3,a4
    21f4:	0ff0000f          	fence
    21f8:	004009b7          	lui	a1,0x400
    21fc:	fff9899b          	addiw	a1,a1,-1
    2200:	00b99993          	slli	a1,a1,0xb
    2204:	7ff98993          	addi	a1,a1,2047 # 4007ff <_end+0x3f9daf>
    2208:	00000a13          	li	a2,0
    220c:	00600e13          	li	t2,6

0000000000002210 <test_loop6>:
    2210:	000b3903          	ld	a0,0(a4)
    2214:	01390463          	beq	a0,a1,221c <skip6>
    2218:	0150006f          	j	2a2c <fail>

000000000000221c <skip6>:
    221c:	008b0b13          	addi	a4,a4,8
    2220:	001a0a13          	addi	a2,a2,1
    2224:	ff5a16e3          	bne	a2,a3,2210 <test_loop6>
    2228:	0140006f          	j	223c <next6>

000000000000222c <vtcode6>:
    222c:	800000b7          	lui	ra,0x80000
    2230:	0010809b          	addiw	ra,ra,1
    2234:	01f0d193          	srli	s1,ra,0x1f
    2238:	00005077          	stop

000000000000223c <next6>:
    223c:	0040200b          	vsetcfg	4,0
    2240:	00001ab7          	lui	a3,0x1
    2244:	800a8a9b          	addiw	a3,a3,-2048
    2248:	000aea8b          	vsetvl	a3,a3
    224c:	00002937          	lui	a0,0x2
    2250:	2819262b          	vf	652(a0) # 228c <vtcode7>
    2254:	00000b17          	auipc	a4,0x0
    2258:	7fcb0b13          	addi	a4,a4,2044 # 2a50 <begin_signature>
    225c:	060b21fb          	vsd	vx3,a4
    2260:	0ff0000f          	fence
    2264:	fff00993          	li	a1,-1
    2268:	00000a13          	li	a2,0
    226c:	00700e13          	li	t2,7

0000000000002270 <test_loop7>:
    2270:	000b3903          	ld	a0,0(a4)
    2274:	01390463          	beq	a0,a1,227c <skip7>
    2278:	7b40006f          	j	2a2c <fail>

000000000000227c <skip7>:
    227c:	008b0b13          	addi	a4,a4,8
    2280:	001a0a13          	addi	a2,a2,1
    2284:	ff5a16e3          	bne	a2,a3,2270 <test_loop7>
    2288:	0100006f          	j	2298 <next7>

000000000000228c <vtcode7>:
    228c:	fff00093          	li	ra,-1
    2290:	0000d193          	srli	s1,ra,0x0
    2294:	00005077          	stop

0000000000002298 <next7>:
    2298:	0040200b          	vsetcfg	4,0
    229c:	00001ab7          	lui	a3,0x1
    22a0:	800a8a9b          	addiw	a3,a3,-2048
    22a4:	000aea8b          	vsetvl	a3,a3
    22a8:	00002937          	lui	a0,0x2
    22ac:	3019222b          	vf	772(a0) # 2304 <vtcode8>
    22b0:	00000b17          	auipc	a4,0x0
    22b4:	7a0b0b13          	addi	a4,a4,1952 # 2a50 <begin_signature>
    22b8:	060b21fb          	vsd	vx3,a4
    22bc:	0ff0000f          	fence
    22c0:	400009b7          	lui	a1,0x40000
    22c4:	fff9899b          	addiw	a1,a1,-1
    22c8:	00b99993          	slli	a1,a1,0xb
    22cc:	7ff98993          	addi	a1,a1,2047 # 400007ff <_end+0x3fff9daf>
    22d0:	00b99993          	slli	a1,a1,0xb
    22d4:	7ff98993          	addi	a1,a1,2047
    22d8:	00b99993          	slli	a1,a1,0xb
    22dc:	7ff98993          	addi	a1,a1,2047
    22e0:	00000a13          	li	a2,0
    22e4:	00800e13          	li	t2,8

00000000000022e8 <test_loop8>:
    22e8:	000b3903          	ld	a0,0(a4)
    22ec:	01390463          	beq	a0,a1,22f4 <skip8>
    22f0:	73c0006f          	j	2a2c <fail>

00000000000022f4 <skip8>:
    22f4:	008b0b13          	addi	a4,a4,8
    22f8:	001a0a13          	addi	a2,a2,1
    22fc:	ff5a16e3          	bne	a2,a3,22e8 <test_loop8>
    2300:	0100006f          	j	2310 <next8>

0000000000002304 <vtcode8>:
    2304:	fff00093          	li	ra,-1
    2308:	0010d193          	srli	s1,ra,0x1
    230c:	00005077          	stop

0000000000002310 <next8>:
    2310:	0040200b          	vsetcfg	4,0
    2314:	00001ab7          	lui	a3,0x1
    2318:	800a8a9b          	addiw	a3,a3,-2048
    231c:	000aea8b          	vsetvl	a3,a3
    2320:	00002937          	lui	a0,0x2
    2324:	36192e2b          	vf	892(a0) # 237c <vtcode9>
    2328:	00000b17          	auipc	a4,0x0
    232c:	728b0b13          	addi	a4,a4,1832 # 2a50 <begin_signature>
    2330:	060b21fb          	vsd	vx3,a4
    2334:	0ff0000f          	fence
    2338:	010009b7          	lui	a1,0x1000
    233c:	fff9899b          	addiw	a1,a1,-1
    2340:	00b99993          	slli	a1,a1,0xb
    2344:	7ff98993          	addi	a1,a1,2047 # 10007ff <_end+0xff9daf>
    2348:	00b99993          	slli	a1,a1,0xb
    234c:	7ff98993          	addi	a1,a1,2047
    2350:	00b99993          	slli	a1,a1,0xb
    2354:	7ff98993          	addi	a1,a1,2047
    2358:	00000a13          	li	a2,0
    235c:	00900e13          	li	t2,9

0000000000002360 <test_loop9>:
    2360:	000b3903          	ld	a0,0(a4)
    2364:	01390463          	beq	a0,a1,236c <skip9>
    2368:	6c40006f          	j	2a2c <fail>

000000000000236c <skip9>:
    236c:	008b0b13          	addi	a4,a4,8
    2370:	001a0a13          	addi	a2,a2,1
    2374:	ff5a16e3          	bne	a2,a3,2360 <test_loop9>
    2378:	0100006f          	j	2388 <next9>

000000000000237c <vtcode9>:
    237c:	fff00093          	li	ra,-1
    2380:	0070d193          	srli	s1,ra,0x7
    2384:	00005077          	stop

0000000000002388 <next9>:
    2388:	0040200b          	vsetcfg	4,0
    238c:	00001ab7          	lui	a3,0x1
    2390:	800a8a9b          	addiw	a3,a3,-2048
    2394:	000aea8b          	vsetvl	a3,a3
    2398:	00002937          	lui	a0,0x2
    239c:	3e19262b          	vf	1004(a0) # 23ec <vtcode10>
    23a0:	00000b17          	auipc	a4,0x0
    23a4:	6b0b0b13          	addi	a4,a4,1712 # 2a50 <begin_signature>
    23a8:	060b21fb          	vsd	vx3,a4
    23ac:	0ff0000f          	fence
    23b0:	100009b7          	lui	a1,0x10000
    23b4:	fff9899b          	addiw	a1,a1,-1
    23b8:	00b99993          	slli	a1,a1,0xb
    23bc:	7ff98993          	addi	a1,a1,2047 # 100007ff <_end+0xfff9daf>
    23c0:	00b99993          	slli	a1,a1,0xb
    23c4:	7ff98993          	addi	a1,a1,2047
    23c8:	00000a13          	li	a2,0
    23cc:	00a00e13          	li	t2,10

00000000000023d0 <test_loop10>:
    23d0:	000b3903          	ld	a0,0(a4)
    23d4:	01390463          	beq	a0,a1,23dc <skip10>
    23d8:	6540006f          	j	2a2c <fail>

00000000000023dc <skip10>:
    23dc:	008b0b13          	addi	a4,a4,8
    23e0:	001a0a13          	addi	a2,a2,1
    23e4:	ff5a16e3          	bne	a2,a3,23d0 <test_loop10>
    23e8:	0100006f          	j	23f8 <next10>

00000000000023ec <vtcode10>:
    23ec:	fff00093          	li	ra,-1
    23f0:	00e0d193          	srli	s1,ra,0xe
    23f4:	00005077          	stop

00000000000023f8 <next10>:
    23f8:	0040200b          	vsetcfg	4,0
    23fc:	00001ab7          	lui	a3,0x1
    2400:	800a8a9b          	addiw	a3,a3,-2048
    2404:	000aea8b          	vsetvl	a3,a3
    2408:	00002937          	lui	a0,0x2
    240c:	44192a2b          	vf	1108(a0) # 2454 <vtcode11>
    2410:	00000b17          	auipc	a4,0x0
    2414:	640b0b13          	addi	a4,a4,1600 # 2a50 <begin_signature>
    2418:	060b21fb          	vsd	vx3,a4
    241c:	0ff0000f          	fence
    2420:	004009b7          	lui	a1,0x400
    2424:	fff9899b          	addiw	a1,a1,-1
    2428:	00b99993          	slli	a1,a1,0xb
    242c:	7ff98993          	addi	a1,a1,2047 # 4007ff <_end+0x3f9daf>
    2430:	00000a13          	li	a2,0
    2434:	00b00e13          	li	t2,11

0000000000002438 <test_loop11>:
    2438:	000b3903          	ld	a0,0(a4)
    243c:	01390463          	beq	a0,a1,2444 <skip11>
    2440:	5ec0006f          	j	2a2c <fail>

0000000000002444 <skip11>:
    2444:	008b0b13          	addi	a4,a4,8
    2448:	001a0a13          	addi	a2,a2,1
    244c:	ff5a16e3          	bne	a2,a3,2438 <test_loop11>
    2450:	0100006f          	j	2460 <next11>

0000000000002454 <vtcode11>:
    2454:	fff00093          	li	ra,-1
    2458:	01f0d193          	srli	s1,ra,0x1f
    245c:	00005077          	stop

0000000000002460 <next11>:
    2460:	0040200b          	vsetcfg	4,0
    2464:	00001ab7          	lui	a3,0x1
    2468:	800a8a9b          	addiw	a3,a3,-2048
    246c:	000aea8b          	vsetvl	a3,a3
    2470:	00002937          	lui	a0,0x2
    2474:	4a192a2b          	vf	1204(a0) # 24b4 <vtcode12>
    2478:	00000b17          	auipc	a4,0x0
    247c:	5d8b0b13          	addi	a4,a4,1496 # 2a50 <begin_signature>
    2480:	060b21fb          	vsd	vx3,a4
    2484:	0ff0000f          	fence
    2488:	212129b7          	lui	a1,0x21212
    248c:	1219899b          	addiw	a1,a1,289
    2490:	00000a13          	li	a2,0
    2494:	00c00e13          	li	t2,12

0000000000002498 <test_loop12>:
    2498:	000b3903          	ld	a0,0(a4)
    249c:	01390463          	beq	a0,a1,24a4 <skip12>
    24a0:	58c0006f          	j	2a2c <fail>

00000000000024a4 <skip12>:
    24a4:	008b0b13          	addi	a4,a4,8
    24a8:	001a0a13          	addi	a2,a2,1
    24ac:	ff5a16e3          	bne	a2,a3,2498 <test_loop12>
    24b0:	0140006f          	j	24c4 <next12>

00000000000024b4 <vtcode12>:
    24b4:	212120b7          	lui	ra,0x21212
    24b8:	1210809b          	addiw	ra,ra,289
    24bc:	0000d193          	srli	s1,ra,0x0
    24c0:	00005077          	stop

00000000000024c4 <next12>:
    24c4:	0040200b          	vsetcfg	4,0
    24c8:	00001ab7          	lui	a3,0x1
    24cc:	800a8a9b          	addiw	a3,a3,-2048
    24d0:	000aea8b          	vsetvl	a3,a3
    24d4:	00002937          	lui	a0,0x2
    24d8:	50192c2b          	vf	1304(a0) # 2518 <vtcode13>
    24dc:	00000b17          	auipc	a4,0x0
    24e0:	574b0b13          	addi	a4,a4,1396 # 2a50 <begin_signature>
    24e4:	060b21fb          	vsd	vx3,a4
    24e8:	0ff0000f          	fence
    24ec:	109099b7          	lui	a1,0x10909
    24f0:	0909899b          	addiw	a1,a1,144
    24f4:	00000a13          	li	a2,0
    24f8:	00d00e13          	li	t2,13

00000000000024fc <test_loop13>:
    24fc:	000b3903          	ld	a0,0(a4)
    2500:	01390463          	beq	a0,a1,2508 <skip13>
    2504:	5280006f          	j	2a2c <fail>

0000000000002508 <skip13>:
    2508:	008b0b13          	addi	a4,a4,8
    250c:	001a0a13          	addi	a2,a2,1
    2510:	ff5a16e3          	bne	a2,a3,24fc <test_loop13>
    2514:	0140006f          	j	2528 <next13>

0000000000002518 <vtcode13>:
    2518:	212120b7          	lui	ra,0x21212
    251c:	1210809b          	addiw	ra,ra,289
    2520:	0010d193          	srli	s1,ra,0x1
    2524:	00005077          	stop

0000000000002528 <next13>:
    2528:	0040200b          	vsetcfg	4,0
    252c:	00001ab7          	lui	a3,0x1
    2530:	800a8a9b          	addiw	a3,a3,-2048
    2534:	000aea8b          	vsetvl	a3,a3
    2538:	00002937          	lui	a0,0x2
    253c:	56192e2b          	vf	1404(a0) # 257c <vtcode14>
    2540:	00000b17          	auipc	a4,0x0
    2544:	510b0b13          	addi	a4,a4,1296 # 2a50 <begin_signature>
    2548:	060b21fb          	vsd	vx3,a4
    254c:	0ff0000f          	fence
    2550:	004249b7          	lui	a1,0x424
    2554:	2429899b          	addiw	a1,a1,578
    2558:	00000a13          	li	a2,0
    255c:	00e00e13          	li	t2,14

0000000000002560 <test_loop14>:
    2560:	000b3903          	ld	a0,0(a4)
    2564:	01390463          	beq	a0,a1,256c <skip14>
    2568:	4c40006f          	j	2a2c <fail>

000000000000256c <skip14>:
    256c:	008b0b13          	addi	a4,a4,8
    2570:	001a0a13          	addi	a2,a2,1
    2574:	ff5a16e3          	bne	a2,a3,2560 <test_loop14>
    2578:	0140006f          	j	258c <next14>

000000000000257c <vtcode14>:
    257c:	212120b7          	lui	ra,0x21212
    2580:	1210809b          	addiw	ra,ra,289
    2584:	0070d193          	srli	s1,ra,0x7
    2588:	00005077          	stop

000000000000258c <next14>:
    258c:	0040200b          	vsetcfg	4,0
    2590:	00001ab7          	lui	a3,0x1
    2594:	800a8a9b          	addiw	a3,a3,-2048
    2598:	000aea8b          	vsetvl	a3,a3
    259c:	00002937          	lui	a0,0x2
    25a0:	5e19202b          	vf	1504(a0) # 25e0 <vtcode15>
    25a4:	00000b17          	auipc	a4,0x0
    25a8:	4acb0b13          	addi	a4,a4,1196 # 2a50 <begin_signature>
    25ac:	060b21fb          	vsd	vx3,a4
    25b0:	0ff0000f          	fence
    25b4:	000089b7          	lui	a1,0x8
    25b8:	4849899b          	addiw	a1,a1,1156
    25bc:	00000a13          	li	a2,0
    25c0:	00f00e13          	li	t2,15

00000000000025c4 <test_loop15>:
    25c4:	000b3903          	ld	a0,0(a4)
    25c8:	01390463          	beq	a0,a1,25d0 <skip15>
    25cc:	4600006f          	j	2a2c <fail>

00000000000025d0 <skip15>:
    25d0:	008b0b13          	addi	a4,a4,8
    25d4:	001a0a13          	addi	a2,a2,1
    25d8:	ff5a16e3          	bne	a2,a3,25c4 <test_loop15>
    25dc:	0140006f          	j	25f0 <next15>

00000000000025e0 <vtcode15>:
    25e0:	212120b7          	lui	ra,0x21212
    25e4:	1210809b          	addiw	ra,ra,289
    25e8:	00e0d193          	srli	s1,ra,0xe
    25ec:	00005077          	stop

00000000000025f0 <next15>:
    25f0:	0040200b          	vsetcfg	4,0
    25f4:	00001ab7          	lui	a3,0x1
    25f8:	800a8a9b          	addiw	a3,a3,-2048
    25fc:	000aea8b          	vsetvl	a3,a3
    2600:	00002937          	lui	a0,0x2
    2604:	6419202b          	vf	1600(a0) # 2640 <vtcode16>
    2608:	00000b17          	auipc	a4,0x0
    260c:	448b0b13          	addi	a4,a4,1096 # 2a50 <begin_signature>
    2610:	060b21fb          	vsd	vx3,a4
    2614:	0ff0000f          	fence
    2618:	00000993          	li	a1,0
    261c:	00000a13          	li	a2,0
    2620:	01000e13          	li	t2,16

0000000000002624 <test_loop16>:
    2624:	000b3903          	ld	a0,0(a4)
    2628:	01390463          	beq	a0,a1,2630 <skip16>
    262c:	4000006f          	j	2a2c <fail>

0000000000002630 <skip16>:
    2630:	008b0b13          	addi	a4,a4,8
    2634:	001a0a13          	addi	a2,a2,1
    2638:	ff5a16e3          	bne	a2,a3,2624 <test_loop16>
    263c:	0140006f          	j	2650 <next16>

0000000000002640 <vtcode16>:
    2640:	212120b7          	lui	ra,0x21212
    2644:	1210809b          	addiw	ra,ra,289
    2648:	01f0d193          	srli	s1,ra,0x1f
    264c:	00005077          	stop

0000000000002650 <next16>:
    2650:	0020200b          	vsetcfg	2,0
    2654:	00001ab7          	lui	a3,0x1
    2658:	800a8a9b          	addiw	a3,a3,-2048
    265c:	000aea8b          	vsetvl	a3,a3
    2660:	00002937          	lui	a0,0x2
    2664:	6a192a2b          	vf	1716(a0) # 26b4 <vtcode17>
    2668:	00000b17          	auipc	a4,0x0
    266c:	3e8b0b13          	addi	a4,a4,1000 # 2a50 <begin_signature>
    2670:	060b20fb          	vsd	vx1,a4
    2674:	0ff0000f          	fence
    2678:	010009b7          	lui	a1,0x1000
    267c:	fff9899b          	addiw	a1,a1,-1
    2680:	00b99993          	slli	a1,a1,0xb
    2684:	7fc98993          	addi	a1,a1,2044 # 10007fc <_end+0xff9dac>
    2688:	00b99993          	slli	a1,a1,0xb
    268c:	00b99993          	slli	a1,a1,0xb
    2690:	00000a13          	li	a2,0
    2694:	01100e13          	li	t2,17

0000000000002698 <test_loop17>:
    2698:	000b3903          	ld	a0,0(a4)
    269c:	01390463          	beq	a0,a1,26a4 <skip17>
    26a0:	38c0006f          	j	2a2c <fail>

00000000000026a4 <skip17>:
    26a4:	008b0b13          	addi	a4,a4,8
    26a8:	001a0a13          	addi	a2,a2,1
    26ac:	ff5a16e3          	bne	a2,a3,2698 <test_loop17>
    26b0:	0100006f          	j	26c0 <next17>

00000000000026b4 <vtcode17>:
    26b4:	800000b7          	lui	ra,0x80000
    26b8:	0070d093          	srli	ra,ra,0x7
    26bc:	00005077          	stop

00000000000026c0 <next17>:
    26c0:	0050200b          	vsetcfg	5,0
    26c4:	00001ab7          	lui	a3,0x1
    26c8:	800a8a9b          	addiw	a3,a3,-2048
    26cc:	000aea8b          	vsetvl	a3,a3
    26d0:	00002937          	lui	a0,0x2
    26d4:	7219222b          	vf	1828(a0) # 2724 <vtcode18>
    26d8:	00000b17          	auipc	a4,0x0
    26dc:	378b0b13          	addi	a4,a4,888 # 2a50 <begin_signature>
    26e0:	060b227b          	vsd	vx4,a4
    26e4:	0ff0000f          	fence
    26e8:	010009b7          	lui	a1,0x1000
    26ec:	fff9899b          	addiw	a1,a1,-1
    26f0:	00b99993          	slli	a1,a1,0xb
    26f4:	7fc98993          	addi	a1,a1,2044 # 10007fc <_end+0xff9dac>
    26f8:	00b99993          	slli	a1,a1,0xb
    26fc:	00b99993          	slli	a1,a1,0xb
    2700:	00000a13          	li	a2,0
    2704:	01200e13          	li	t2,18

0000000000002708 <test_loop18>:
    2708:	000b3903          	ld	a0,0(a4)
    270c:	01390463          	beq	a0,a1,2714 <skip18>
    2710:	31c0006f          	j	2a2c <fail>

0000000000002714 <skip18>:
    2714:	008b0b13          	addi	a4,a4,8
    2718:	001a0a13          	addi	a2,a2,1
    271c:	ff5a16e3          	bne	a2,a3,2708 <test_loop18>
    2720:	0140006f          	j	2734 <next18>

0000000000002724 <vtcode18>:
    2724:	800000b7          	lui	ra,0x80000
    2728:	0070d193          	srli	s1,ra,0x7
    272c:	00018213          	mv	s2,s1
    2730:	00005077          	stop

0000000000002734 <next18>:
    2734:	0050200b          	vsetcfg	5,0
    2738:	00001ab7          	lui	a3,0x1
    273c:	800a8a9b          	addiw	a3,a3,-2048
    2740:	000aea8b          	vsetvl	a3,a3
    2744:	00002937          	lui	a0,0x2
    2748:	78192a2b          	vf	1940(a0) # 2794 <vtcode19>
    274c:	00000b17          	auipc	a4,0x0
    2750:	304b0b13          	addi	a4,a4,772 # 2a50 <begin_signature>
    2754:	060b227b          	vsd	vx4,a4
    2758:	0ff0000f          	fence
    275c:	100009b7          	lui	a1,0x10000
    2760:	fff9899b          	addiw	a1,a1,-1
    2764:	00b99993          	slli	a1,a1,0xb
    2768:	7c098993          	addi	a1,a1,1984 # 100007c0 <_end+0xfff9d70>
    276c:	00b99993          	slli	a1,a1,0xb
    2770:	00000a13          	li	a2,0
    2774:	01300e13          	li	t2,19

0000000000002778 <test_loop19>:
    2778:	000b3903          	ld	a0,0(a4)
    277c:	01390463          	beq	a0,a1,2784 <skip19>
    2780:	2ac0006f          	j	2a2c <fail>

0000000000002784 <skip19>:
    2784:	008b0b13          	addi	a4,a4,8
    2788:	001a0a13          	addi	a2,a2,1
    278c:	ff5a16e3          	bne	a2,a3,2778 <test_loop19>
    2790:	0180006f          	j	27a8 <next19>

0000000000002794 <vtcode19>:
    2794:	800000b7          	lui	ra,0x80000
    2798:	00e0d193          	srli	s1,ra,0xe
    279c:	00000013          	nop
    27a0:	00018213          	mv	s2,s1
    27a4:	00005077          	stop

00000000000027a8 <next19>:
    27a8:	0050200b          	vsetcfg	5,0
    27ac:	00001ab7          	lui	a3,0x1
    27b0:	800a8a9b          	addiw	a3,a3,-2048
    27b4:	000aea8b          	vsetvl	a3,a3
    27b8:	00003937          	lui	a0,0x3
    27bc:	8019222b          	vf	-2044(a0) # 2804 <vtcode20>
    27c0:	00000b17          	auipc	a4,0x0
    27c4:	290b0b13          	addi	a4,a4,656 # 2a50 <begin_signature>
    27c8:	060b227b          	vsd	vx4,a4
    27cc:	0ff0000f          	fence
    27d0:	004009b7          	lui	a1,0x400
    27d4:	fff9899b          	addiw	a1,a1,-1
    27d8:	00b99993          	slli	a1,a1,0xb
    27dc:	7ff98993          	addi	a1,a1,2047 # 4007ff <_end+0x3f9daf>
    27e0:	00000a13          	li	a2,0
    27e4:	01400e13          	li	t2,20

00000000000027e8 <test_loop20>:
    27e8:	000b3903          	ld	a0,0(a4)
    27ec:	01390463          	beq	a0,a1,27f4 <skip20>
    27f0:	23c0006f          	j	2a2c <fail>

00000000000027f4 <skip20>:
    27f4:	008b0b13          	addi	a4,a4,8
    27f8:	001a0a13          	addi	a2,a2,1
    27fc:	ff5a16e3          	bne	a2,a3,27e8 <test_loop20>
    2800:	0200006f          	j	2820 <next20>

0000000000002804 <vtcode20>:
    2804:	800000b7          	lui	ra,0x80000
    2808:	0010809b          	addiw	ra,ra,1
    280c:	01f0d193          	srli	s1,ra,0x1f
    2810:	00000013          	nop
    2814:	00000013          	nop
    2818:	00018213          	mv	s2,s1
    281c:	00005077          	stop

0000000000002820 <next20>:
    2820:	0040200b          	vsetcfg	4,0
    2824:	00001ab7          	lui	a3,0x1
    2828:	800a8a9b          	addiw	a3,a3,-2048
    282c:	000aea8b          	vsetvl	a3,a3
    2830:	00003937          	lui	a0,0x3
    2834:	8819222b          	vf	-1916(a0) # 2884 <vtcode21>
    2838:	00000b17          	auipc	a4,0x0
    283c:	218b0b13          	addi	a4,a4,536 # 2a50 <begin_signature>
    2840:	060b21fb          	vsd	vx3,a4
    2844:	0ff0000f          	fence
    2848:	010009b7          	lui	a1,0x1000
    284c:	fff9899b          	addiw	a1,a1,-1
    2850:	00b99993          	slli	a1,a1,0xb
    2854:	7fc98993          	addi	a1,a1,2044 # 10007fc <_end+0xff9dac>
    2858:	00b99993          	slli	a1,a1,0xb
    285c:	00b99993          	slli	a1,a1,0xb
    2860:	00000a13          	li	a2,0
    2864:	01500e13          	li	t2,21

0000000000002868 <test_loop21>:
    2868:	000b3903          	ld	a0,0(a4)
    286c:	01390463          	beq	a0,a1,2874 <skip21>
    2870:	1bc0006f          	j	2a2c <fail>

0000000000002874 <skip21>:
    2874:	008b0b13          	addi	a4,a4,8
    2878:	001a0a13          	addi	a2,a2,1
    287c:	ff5a16e3          	bne	a2,a3,2868 <test_loop21>
    2880:	0100006f          	j	2890 <next21>

0000000000002884 <vtcode21>:
    2884:	800000b7          	lui	ra,0x80000
    2888:	0070d193          	srli	s1,ra,0x7
    288c:	00005077          	stop

0000000000002890 <next21>:
    2890:	0040200b          	vsetcfg	4,0
    2894:	00001ab7          	lui	a3,0x1
    2898:	800a8a9b          	addiw	a3,a3,-2048
    289c:	000aea8b          	vsetvl	a3,a3
    28a0:	00003937          	lui	a0,0x3
    28a4:	8e19282b          	vf	-1808(a0) # 28f0 <vtcode22>
    28a8:	00000b17          	auipc	a4,0x0
    28ac:	1a8b0b13          	addi	a4,a4,424 # 2a50 <begin_signature>
    28b0:	060b21fb          	vsd	vx3,a4
    28b4:	0ff0000f          	fence
    28b8:	100009b7          	lui	a1,0x10000
    28bc:	fff9899b          	addiw	a1,a1,-1
    28c0:	00b99993          	slli	a1,a1,0xb
    28c4:	7c098993          	addi	a1,a1,1984 # 100007c0 <_end+0xfff9d70>
    28c8:	00b99993          	slli	a1,a1,0xb
    28cc:	00000a13          	li	a2,0
    28d0:	01600e13          	li	t2,22

00000000000028d4 <test_loop22>:
    28d4:	000b3903          	ld	a0,0(a4)
    28d8:	01390463          	beq	a0,a1,28e0 <skip22>
    28dc:	1500006f          	j	2a2c <fail>

00000000000028e0 <skip22>:
    28e0:	008b0b13          	addi	a4,a4,8
    28e4:	001a0a13          	addi	a2,a2,1
    28e8:	ff5a16e3          	bne	a2,a3,28d4 <test_loop22>
    28ec:	0140006f          	j	2900 <next22>

00000000000028f0 <vtcode22>:
    28f0:	800000b7          	lui	ra,0x80000
    28f4:	00000013          	nop
    28f8:	00e0d193          	srli	s1,ra,0xe
    28fc:	00005077          	stop

0000000000002900 <next22>:
    2900:	0040200b          	vsetcfg	4,0
    2904:	00001ab7          	lui	a3,0x1
    2908:	800a8a9b          	addiw	a3,a3,-2048
    290c:	000aea8b          	vsetvl	a3,a3
    2910:	00003937          	lui	a0,0x3
    2914:	94192e2b          	vf	-1700(a0) # 295c <vtcode23>
    2918:	00000b17          	auipc	a4,0x0
    291c:	138b0b13          	addi	a4,a4,312 # 2a50 <begin_signature>
    2920:	060b21fb          	vsd	vx3,a4
    2924:	0ff0000f          	fence
    2928:	004009b7          	lui	a1,0x400
    292c:	fff9899b          	addiw	a1,a1,-1
    2930:	00b99993          	slli	a1,a1,0xb
    2934:	7ff98993          	addi	a1,a1,2047 # 4007ff <_end+0x3f9daf>
    2938:	00000a13          	li	a2,0
    293c:	01700e13          	li	t2,23

0000000000002940 <test_loop23>:
    2940:	000b3903          	ld	a0,0(a4)
    2944:	01390463          	beq	a0,a1,294c <skip23>
    2948:	0e40006f          	j	2a2c <fail>

000000000000294c <skip23>:
    294c:	008b0b13          	addi	a4,a4,8
    2950:	001a0a13          	addi	a2,a2,1
    2954:	ff5a16e3          	bne	a2,a3,2940 <test_loop23>
    2958:	01c0006f          	j	2974 <next23>

000000000000295c <vtcode23>:
    295c:	800000b7          	lui	ra,0x80000
    2960:	0010809b          	addiw	ra,ra,1
    2964:	00000013          	nop
    2968:	00000013          	nop
    296c:	01f0d193          	srli	s1,ra,0x1f
    2970:	00005077          	stop

0000000000002974 <next23>:
    2974:	0020200b          	vsetcfg	2,0
    2978:	00001ab7          	lui	a3,0x1
    297c:	800a8a9b          	addiw	a3,a3,-2048
    2980:	000aea8b          	vsetvl	a3,a3
    2984:	00003937          	lui	a0,0x3
    2988:	9c19222b          	vf	-1596(a0) # 29c4 <vtcode24>
    298c:	00000b17          	auipc	a4,0x0
    2990:	0c4b0b13          	addi	a4,a4,196 # 2a50 <begin_signature>
    2994:	060b20fb          	vsd	vx1,a4
    2998:	0ff0000f          	fence
    299c:	00000993          	li	a1,0
    29a0:	00000a13          	li	a2,0
    29a4:	01800e13          	li	t2,24

00000000000029a8 <test_loop24>:
    29a8:	000b3903          	ld	a0,0(a4)
    29ac:	01390463          	beq	a0,a1,29b4 <skip24>
    29b0:	07c0006f          	j	2a2c <fail>

00000000000029b4 <skip24>:
    29b4:	008b0b13          	addi	a4,a4,8
    29b8:	001a0a13          	addi	a2,a2,1
    29bc:	ff5a16e3          	bne	a2,a3,29a8 <test_loop24>
    29c0:	00c0006f          	j	29cc <next24>

00000000000029c4 <vtcode24>:
    29c4:	02005093          	srli	ra,zero,0x20
    29c8:	00005077          	stop

00000000000029cc <next24>:
    29cc:	0020200b          	vsetcfg	2,0
    29d0:	00001ab7          	lui	a3,0x1
    29d4:	800a8a9b          	addiw	a3,a3,-2048
    29d8:	000aea8b          	vsetvl	a3,a3
    29dc:	00003937          	lui	a0,0x3
    29e0:	a0192e2b          	vf	-1508(a0) # 2a1c <vtcode25>
    29e4:	00000b17          	auipc	a4,0x0
    29e8:	06cb0b13          	addi	a4,a4,108 # 2a50 <begin_signature>
    29ec:	060b207b          	vsd	vx0,a4
    29f0:	0ff0000f          	fence
    29f4:	00000993          	li	a1,0
    29f8:	00000a13          	li	a2,0
    29fc:	01900e13          	li	t2,25

0000000000002a00 <test_loop25>:
    2a00:	000b3903          	ld	a0,0(a4)
    2a04:	01390463          	beq	a0,a1,2a0c <skip25>
    2a08:	0240006f          	j	2a2c <fail>

0000000000002a0c <skip25>:
    2a0c:	008b0b13          	addi	a4,a4,8
    2a10:	001a0a13          	addi	a2,a2,1
    2a14:	ff5a16e3          	bne	a2,a3,2a00 <test_loop25>
    2a18:	0100006f          	j	2a28 <next25>

0000000000002a1c <vtcode25>:
    2a1c:	02100093          	li	ra,33
    2a20:	0320d013          	srli	zero,ra,0x32
    2a24:	00005077          	stop

0000000000002a28 <next25>:
    2a28:	01c01e63          	bne	zero,t2,2a44 <pass>

0000000000002a2c <fail>:
    2a2c:	0ff0000f          	fence
    2a30:	000e0863          	beqz	t2,2a40 <fail+0x14>
    2a34:	001e1e13          	slli	t2,t2,0x1
    2a38:	001e6e13          	ori	t2,t2,1
    2a3c:	51ee1073          	csrw	tohost,t2
    2a40:	00000063          	b	2a40 <fail+0x14>

0000000000002a44 <pass>:
    2a44:	0ff0000f          	fence
    2a48:	51e0d073          	csrwi	tohost,1
    2a4c:	00000063          	b	2a4c <pass+0x8>
