
rv64ui-pm-lrsc:     file format elf64-littleriscv


Disassembly of section .text:

0000000000002000 <_start>:
    2000:	00000917          	auipc	a0,0x0
    2004:	0f090913          	addi	a0,a0,240 # 20f0 <begin_signature>
    2008:	00100993          	li	a1,1
    200c:	01392a2f          	amoadd.w	a2,a1,(a0)
    2010:	00402a83          	lw	a3,4(zero)
    2014:	00092983          	lw	a1,0(a0)
    2018:	ff59cee3          	blt	a1,a3,2014 <_start+0x14>

000000000000201c <test_2>:
    201c:	00000917          	auipc	a0,0x0
    2020:	0dc90913          	addi	a0,a0,220 # 20f8 <foo>
    2024:	18092b2f          	sc.w	a4,zero,(a0)
    2028:	00100e93          	li	t3,1
    202c:	00200e13          	li	t2,2
    2030:	09db1a63          	bne	a4,t3,20c4 <fail>

0000000000002034 <test_3>:
    2034:	00000917          	auipc	a0,0x0
    2038:	0c490913          	addi	a0,a0,196 # 20f8 <foo>
    203c:	40090993          	addi	a1,a0,1024
    2040:	1009a9af          	lr.w	a1,(a1)
    2044:	19392b2f          	sc.w	a4,a1,(a0)
    2048:	00100e93          	li	t3,1
    204c:	00300e13          	li	t2,3
    2050:	07db1a63          	bne	a4,t3,20c4 <fail>
    2054:	00000917          	auipc	a0,0x0
    2058:	0a490913          	addi	a0,a0,164 # 20f8 <foo>
    205c:	3e800993          	li	a1,1000
    2060:	10092b2f          	lr.w	a4,(a0)
    2064:	014b0b33          	add	a4,a4,a2
    2068:	19692b2f          	sc.w	a4,a4,(a0)
    206c:	fe0b1ae3          	bnez	a4,2060 <test_3+0x2c>
    2070:	fff98993          	addi	a1,a1,-1
    2074:	fe0996e3          	bnez	a1,2060 <test_3+0x2c>
    2078:	00000917          	auipc	a0,0x0
    207c:	07c90913          	addi	a0,a0,124 # 20f4 <barrier>
    2080:	00100993          	li	a1,1
    2084:	0139202f          	amoadd.w	zero,a1,(a0)
    2088:	00092983          	lw	a1,0(a0)
    208c:	ff59cee3          	blt	a1,a3,2088 <test_3+0x54>
    2090:	0ff0000f          	fence

0000000000002094 <test_4>:
    2094:	00000917          	auipc	a0,0x0
    2098:	06490913          	addi	a0,a0,100 # 20f8 <foo>
    209c:	1f400993          	li	a1,500
    20a0:	035989b3          	mul	a1,a1,a3
    20a4:	fffa8a13          	addi	a2,a3,-1
    20a8:	034989b3          	mul	a1,a1,a2
    20ac:	00092a03          	lw	a2,0(a0)
    20b0:	413a0a33          	sub	a2,a2,a1
    20b4:	00000e93          	li	t3,0
    20b8:	00400e13          	li	t2,4
    20bc:	01da1463          	bne	a2,t3,20c4 <fail>
    20c0:	01c01e63          	bne	zero,t2,20dc <pass>

00000000000020c4 <fail>:
    20c4:	0ff0000f          	fence
    20c8:	000e0863          	beqz	t2,20d8 <fail+0x14>
    20cc:	001e1e13          	slli	t2,t2,0x1
    20d0:	001e6e13          	ori	t2,t2,1
    20d4:	51ee1073          	csrw	tohost,t2
    20d8:	00000063          	b	20d8 <fail+0x14>

00000000000020dc <pass>:
    20dc:	0ff0000f          	fence
    20e0:	51e0d073          	csrwi	tohost,1
    20e4:	00000063          	b	20e4 <pass+0x8>
    20e8:	00000013          	nop
    20ec:	00000013          	nop
