
rv64ui-p-remu:     file format elf64-littleriscv


Disassembly of section .text:

0000000000002000 <_start>:
    2000:	50b02973          	csrr	a0,hartid
    2004:	00091063          	bnez	a0,2004 <_start+0x4>

0000000000002008 <test_2>:
    2008:	01400093          	li	ra,20
    200c:	00600113          	li	s0,6
    2010:	0220f1b3          	remu	s1,ra,s0
    2014:	00200e93          	li	t3,2
    2018:	00200e13          	li	t2,2
    201c:	11d19263          	bne	s1,t3,2120 <fail>

0000000000002020 <test_3>:
    2020:	fec00093          	li	ra,-20
    2024:	00600113          	li	s0,6
    2028:	0220f1b3          	remu	s1,ra,s0
    202c:	00200e93          	li	t3,2
    2030:	00300e13          	li	t2,3
    2034:	0fd19663          	bne	s1,t3,2120 <fail>

0000000000002038 <test_4>:
    2038:	01400093          	li	ra,20
    203c:	ffa00113          	li	s0,-6
    2040:	0220f1b3          	remu	s1,ra,s0
    2044:	01400e93          	li	t3,20
    2048:	00400e13          	li	t2,4
    204c:	0dd19a63          	bne	s1,t3,2120 <fail>

0000000000002050 <test_5>:
    2050:	fec00093          	li	ra,-20
    2054:	ffa00113          	li	s0,-6
    2058:	0220f1b3          	remu	s1,ra,s0
    205c:	fec00e93          	li	t3,-20
    2060:	00500e13          	li	t2,5
    2064:	0bd19e63          	bne	s1,t3,2120 <fail>

0000000000002068 <test_6>:
    2068:	c00000b7          	lui	ra,0xc0000
    206c:	00b09093          	slli	ra,ra,0xb
    2070:	00b09093          	slli	ra,ra,0xb
    2074:	00b09093          	slli	ra,ra,0xb
    2078:	00100113          	li	s0,1
    207c:	0220f1b3          	remu	s1,ra,s0
    2080:	00000e93          	li	t3,0
    2084:	00600e13          	li	t2,6
    2088:	09d19c63          	bne	s1,t3,2120 <fail>

000000000000208c <test_7>:
    208c:	c00000b7          	lui	ra,0xc0000
    2090:	00b09093          	slli	ra,ra,0xb
    2094:	00b09093          	slli	ra,ra,0xb
    2098:	00b09093          	slli	ra,ra,0xb
    209c:	fff00113          	li	s0,-1
    20a0:	0220f1b3          	remu	s1,ra,s0
    20a4:	c0000eb7          	lui	t3,0xc0000
    20a8:	00be9e93          	slli	t3,t3,0xb
    20ac:	00be9e93          	slli	t3,t3,0xb
    20b0:	00be9e93          	slli	t3,t3,0xb
    20b4:	00700e13          	li	t2,7
    20b8:	07d19463          	bne	s1,t3,2120 <fail>

00000000000020bc <test_8>:
    20bc:	c00000b7          	lui	ra,0xc0000
    20c0:	00b09093          	slli	ra,ra,0xb
    20c4:	00b09093          	slli	ra,ra,0xb
    20c8:	00b09093          	slli	ra,ra,0xb
    20cc:	00000113          	li	s0,0
    20d0:	0220f1b3          	remu	s1,ra,s0
    20d4:	c0000eb7          	lui	t3,0xc0000
    20d8:	00be9e93          	slli	t3,t3,0xb
    20dc:	00be9e93          	slli	t3,t3,0xb
    20e0:	00be9e93          	slli	t3,t3,0xb
    20e4:	00800e13          	li	t2,8
    20e8:	03d19c63          	bne	s1,t3,2120 <fail>

00000000000020ec <test_9>:
    20ec:	00100093          	li	ra,1
    20f0:	00000113          	li	s0,0
    20f4:	0220f1b3          	remu	s1,ra,s0
    20f8:	00100e93          	li	t3,1
    20fc:	00900e13          	li	t2,9
    2100:	03d19063          	bne	s1,t3,2120 <fail>

0000000000002104 <test_10>:
    2104:	00000093          	li	ra,0
    2108:	00000113          	li	s0,0
    210c:	0220f1b3          	remu	s1,ra,s0
    2110:	00000e93          	li	t3,0
    2114:	00a00e13          	li	t2,10
    2118:	01d19463          	bne	s1,t3,2120 <fail>
    211c:	01c01e63          	bne	zero,t2,2138 <pass>

0000000000002120 <fail>:
    2120:	0ff0000f          	fence
    2124:	000e0863          	beqz	t2,2134 <fail+0x14>
    2128:	001e1e13          	slli	t2,t2,0x1
    212c:	001e6e13          	ori	t2,t2,1
    2130:	51ee1073          	csrw	tohost,t2
    2134:	00000063          	b	2134 <fail+0x14>

0000000000002138 <pass>:
    2138:	0ff0000f          	fence
    213c:	51e0d073          	csrwi	tohost,1
    2140:	00000063          	b	2140 <pass+0x8>
    2144:	00000013          	nop
    2148:	00000013          	nop
    214c:	00000013          	nop
